LIBRARY OGMSASD
DESCRIPTION 'OGMSASD_DLL'
EXPORTS
; DLLXPORT_BEGIN:
; Created by Dllxpt32 version 3.11.000 (c) 1994-1997 by Paul Fonte (pfonte@compuserve.com)
;----------------  .\objs\ogmsasd\Stdafx.obj  ----------------
;----------------  .\objs\ogmsasd\gxdll.obj  ----------------

  _pRawDllMain @2 NONAME
  ?szLibName@@3PBDB @3 NONAME
;  _afxForceEXTDLL @4 NONAME
  ?_gxAppState@@3VCGXAutoCleanUpProcessLocal@@A @5 NONAME
  _ExtRawDllMain@12 @6 NONAME
  ?GXGetResourceHandle@@YGPAUHINSTANCE__@@XZ @7 NONAME
  _DllMain@12 @8 NONAME
  _GXInitDll@0 @9 NONAME
  ??0GX_APP_STATE@@QAE@XZ @10 NONAME
;  ??0CNoTrackObject@@QAE@XZ @13 NONAME
  ??1GX_WAIT_STATE@@QAE@XZ @15 NONAME
;  ??0GX_DRAW_STATE@@QAE@XZ @16 NONAME
  ??1GX_DRAW_STATE@@QAE@XZ @17 NONAME
;  ??0GX_CTLUSR_STATE@@QAE@XZ @18 NONAME
  ??1GX_CTLUSR_STATE@@QAE@XZ @19 NONAME
  ??1GX_APP_STATE@@UAE@XZ @20 NONAME
  ??0CGXAutoCleanUpProcessLocal@@QAE@XZ @23 NONAME

;  ??0?$CGXProcessLocal@UGX_APP_STATE@@@@QAE@XZ @25 NONAME

;  ??0?$CTypedPtrMap@VCMapPtrToPtr@@PAVAFX_MODULE_STATE@@PAUGX_APP_STATE@@@@QAE@H@Z @26 NONAME

;  ??1?$CTypedPtrMap@VCMapPtrToPtr@@PAVAFX_MODULE_STATE@@PAUGX_APP_STATE@@@@UAE@XZ @29 NONAME
  ??1CGXAutoCleanUpProcessLocal@@QAE@XZ @30 NONAME
;  ?GetNextAssoc@?$CTypedPtrMap@VCMapPtrToPtr@@PAVAFX_MODULE_STATE@@PAUGX_APP_STATE@@@@QBEXAAPAU__POSITION@@AAPAVAFX_MODULE_STATE@@AAPAUGX_APP_STATE@@@Z @31 NONAME
;  ??1?$CGXProcessLocal@UGX_APP_STATE@@@@QAE@XZ @32 NONAME
  ??1CNoTrackObject@@UAE@XZ @33 NONAME
  ?AutoTerminate@CGXAutoCleanUpProcessLocal@@UAEXPAVAFX_MODULE_STATE@@PAUGX_APP_STATE@@@Z @35 NONAME
  ?ForceTerminate@CGXAutoCleanUpProcessLocal@@UAEXPAUGX_APP_STATE@@@Z @36 NONAME
  ?GetData@?$CGXProcessLocal@UGX_APP_STATE@@@@QAEPAUGX_APP_STATE@@XZ @37 NONAME
;  ?Lookup@?$CTypedPtrMap@VCMapPtrToPtr@@PAVAFX_MODULE_STATE@@PAUGX_APP_STATE@@@@QBEHPAXAAPAUGX_APP_STATE@@@Z @39 NONAME
;  ?SetAt@?$CTypedPtrMap@VCMapPtrToPtr@@PAVAFX_MODULE_STATE@@PAUGX_APP_STATE@@@@QAEXPAVAFX_MODULE_STATE@@PAUGX_APP_STATE@@@Z @40 NONAME
  ?CreateObject@?$CGXProcessLocal@UGX_APP_STATE@@@@SGPAVCNoTrackObject@@XZ @41 NONAME
  ?GetData@?$CGXProcessLocal@UGX_APP_STATE@@@@QAEPAVCNoTrackObject@@P6GPAV2@XZ@Z @42 NONAME
  _GXForceTerminate@0 @45 NONAME
  ?GXGetAppState@@YGPAUGX_APP_STATE@@XZ @46 NONAME
;  ??B?$CGXProcessLocal@UGX_APP_STATE@@@@QAEPAUGX_APP_STATE@@XZ @47 NONAME
  ??0CGXLangDll@@QAE@XZ @48 NONAME
  ?Load@CGXLangDll@@QAEHPBD0@Z @49 NONAME
;  ??B?$CTypedSimpleList@PAUCRuntimeClass@@@@QAEPAUCRuntimeClass@@XZ @52 NONAME
;  ?GetHead@CSimpleList@@QBEPAXXZ @53 NONAME
  ?Free@CGXLangDll@@QAEHXZ @54 NONAME
  ??1CGXLangDll@@QAE@XZ @55 NONAME
;  ??B?$CTypedSimpleList@PAVCOleObjectFactory@@@@QAEPAVCOleObjectFactory@@XZ @56 NONAME

;----------------  .\objs\ogmsasd\gxfactry.obj  ----------------

  ?GXInit@@YGXIPBD0@Z @57 NONAME
;  ??0CGXControlFactory@@QAE@XZ @58 NONAME
; 30.03.2017
;  ??0CGXAbstractControlFactory@@QAE@XZ @60 NONAME

  ?InitializeGridComponents@CGXControlFactory@@UAEXPAVCGXGridCore@@@Z @62 NONAME
  ?InitializeApplicationComponents@CGXControlFactory@@UAEXXZ @63 NONAME
  ?RegisterAllControls@CGXControlFactory@@UAEXPAVCGXStylesMap@@@Z @64 NONAME
  ?CreateControl@CGXControlFactory@@UAEPAVCGXControl@@IPAVCGXGridCore@@@Z @65 NONAME
  ??1CGXResourceString@@QAE@XZ @66 NONAME
  ?RegisterAllUserAttributes@CGXControlFactory@@UAEXPAVCGXStylesMap@@@Z @67 NONAME
  ?RegisterWndClasses@CGXControlFactory@@UAEXPAUHINSTANCE__@@@Z @68 NONAME
  ?UnregisterWndClasses@CGXControlFactory@@UAEXPAUHINSTANCE__@@@Z @69 NONAME
;  ??0CGXResourceString@@QAE@I@Z @70 NONAME
;  ??0CGXStyle@@QAE@XZ @71 NONAME 20.11.2017
;  ??0STYLEBITS@CGXStyle@@QAE@K@Z @74 NONAME
;  ?SetWrapText@CGXStyle@@QAEAAV1@H@Z @75 NONAME
;  ?SetIncludeWrapText@CGXStyle@@QAEAAV1@H@Z @76 NONAME
;  ?SetAutoSize@CGXStyle@@QAEAAV1@H@Z @77 NONAME
;  ?SetIncludeAutoSize@CGXStyle@@QAEAAV1@H@Z @78 NONAME
  ??4CGXStyle@@UAEABV0@PBD@Z @79 NONAME
  ?SetValue@CGXStyle@@QAEAAV1@PBD@Z @80 NONAME
;  ?SetValueType@CGXStyle@@QAEAAV1@I@Z @81 NONAME
;  ?SetIncludeValue@CGXStyle@@QAEAAV1@H@Z @82 NONAME
;  ?AddUserAttribute@CGXStylesMap@@QAEXGABVCGXStyle@@@Z @83 NONAME
;----------------  .\objs\ogmsasd\gxabstr.obj  ----------------
  ??1CGXNoOleDataSourceProxy@@UAE@XZ @84 NONAME
  ??1CGXNoOleDataObjectProxy@@UAE@XZ @87 NONAME
  ??1CGXNoToolTipCtrlProxy@@UAE@XZ @90 NONAME
  ??1CGXAbstractCommandFactory@@UAE@XZ @93 NONAME
  ?GXCheckImp@@YGXPAXPBD@Z @96 NONAME
  ?GXSetAssertNoImp@@YGXPBD@Z @97 NONAME
  ?GXTraceOnce@@YAXPBDZZ @98 NONAME
;----------------  .\objs\ogmsasd\Gxapp.obj  ----------------
  ?_gxImeState@@3UGX_IME_STATE@@A @99 NONAME
  ?GXGetActiveView@@YGPAVCView@@XZ @100 NONAME
  ?GXGetActiveDocument@@YGPAVCDocument@@XZ @101 NONAME
  ?GXGetParentWnd@@YGPAVCWnd@@PBV1@PAUCRuntimeClass@@H@Z @102 NONAME
;  ?GXReplaceString@@YG?AVCString@@AAV1@V1@1@Z @103 NONAME
  ?GXInit@@YGXIPAVCGXAbstractControlFactory@@PBD1@Z @104 NONAME
  ?GXRegisterClasses@@YGXPAUHINSTANCE__@@@Z @105 NONAME
  ?GXTerminate@@YGXPAVCGXAppData@@@Z @107 NONAME
  ?GXUnregisterClasses@@YGXPAUHINSTANCE__@@@Z @109 NONAME
  ?GXDiscardNcActivate@@YGHXZ @110 NONAME
  ?GXSetNewGridLineMode@@YGXHIH@Z @111 NONAME
  ??0CGXAppData@@QAE@XZ @112 NONAME
  ?Init@CGXAppData@@QAEXPAVCGXAbstractControlFactory@@@Z @113 NONAME
  ??1CGXAppData@@QAE@XZ @114 NONAME
  ?LoadResources@CGXAppData@@QAEXXZ @115 NONAME
  ?AutoDeletePtr@CGXAppData@@QAEXPAX@Z @116 NONAME
  ?RegisterSharedScrollBar@CGXAppData@@QAEXPAUCRuntimeClass@@@Z @117 NONAME
  ?GetSharedScrollbarParentWnd@CGXAppData@@QBEPAVCWnd@@PBV2@@Z @118 NONAME
  ?AttachGridToObject@CGXAppData@@QAEXPAXPAVCGXGridCore@@@Z @119 NONAME
  ?GetFirstGrid@CGXAppData@@QBEPAVCGXGridCore@@PAX@Z @120 NONAME
  ?DetachGrid@CGXAppData@@QAEXPAVCGXGridCore@@@Z @121 NONAME
  ??0GX_SYS_DATA@@QAE@XZ @122 NONAME
  ??1GX_SYS_DATA@@QAE@XZ @123 NONAME
  ?UpdateSysColors@GX_SYS_DATA@@QAEXXZ @124 NONAME
  ?UpdateSysSettings@GX_SYS_DATA@@QAEXXZ @125 NONAME
  ?GetSysColor@GX_SYS_DATA@@QAEKH@Z @126 NONAME
  ??0GX_IME_STATE@@QAE@XZ @127 NONAME
  ??1GX_IME_STATE@@QAE@XZ @128 NONAME

;----------------  .\objs\ogmsasd\gxautscr.obj  ----------------

  ?ImplementAutoScroll@CGXGridCore@@QAEXXZ @131 NONAME
  ??0CGXAutoScrollPlugin@@QAE@PAVCGXGridCore@@@Z @132 NONAME
  ??1CGXAutoScrollPlugin@@UAE@XZ @135 NONAME
  ?GetMessageMap@CGXAutoScrollPlugin@@MBEPBUAFX_MSGMAP@@XZ @137 NONAME
  ?OnTimer@CGXAutoScrollPlugin@@IAEXI@Z @138 NONAME
  ?OnLButtonUp@CGXAutoScrollPlugin@@IAEXIVCPoint@@@Z @139 NONAME
  ?OnMButtonUp@CGXAutoScrollPlugin@@IAEXIVCPoint@@@Z @140 NONAME
  ?OnRButtonUp@CGXAutoScrollPlugin@@IAEXIVCPoint@@@Z @141 NONAME
  ?OnCancelMode@CGXAutoScrollPlugin@@IAEXXZ @142 NONAME
  ?OnKeyDown@CGXAutoScrollPlugin@@IAEXIII@Z @143 NONAME
  ?OnKeyUp@CGXAutoScrollPlugin@@IAEXIII@Z @144 NONAME
  ?KillAutoScroll@CGXAutoScrollPlugin@@QAEXXZ @145 NONAME
  ?OnKillFocus@CGXAutoScrollPlugin@@IAEXPAVCWnd@@@Z @146 NONAME

;----------------  .\objs\ogmsasd\gxcalcsi.obj  ----------------

  ?ImplementCalcSize@CGXGridCore@@QAEXXZ @147 NONAME
;  ??0CGXCalcSizeImp@@QAE@XZ @148 NONAME

;  ??0CGXAbstractCalcSizeImp@@QAE@XZ @150 NONAME
 ; ??0CGXAbstractCalcSizeImp@@QAE@XZ @150 NONAME

  ?CalcSize@CGXCalcSizeImp@@UAE?AVCSize@@PAVCGXControl@@PAVCDC@@KKABVCGXStyle@@PBV5@H@Z @152 NONAME
  ?GetHorizontalAlignment@CGXStyle@@QBEKXZ @153 NONAME
;  ?GetIncludeHorizontalAlignment@CGXStyle@@QBEHXZ @155 NONAME
  ?GetVerticalAlignment@CGXStyle@@QBEKXZ @156 NONAME
;  ?GetIncludeVerticalAlignment@CGXStyle@@QBEHXZ @157 NONAME
;  ?GetIncludeWrapText@CGXStyle@@QBEHXZ @158 NONAME
  ?GetWrapText@CGXStyle@@QBEHXZ @159 NONAME
;  ?GetParam@CGXGridCore@@QAEPAVCGXGridParam@@XZ @160 NONAME
;  ??0CGXRange@@QAE@KK@Z @161 NONAME
;  ?GXComputeLineBreaks@@YGHPAVCDC@@PBDHPAUtagRECT@@IPAH3H@Z @162 NONAME
;  ?GetSize@CGXDIB@@QAE?AVCSize@@XZ @163 NONAME

;----------------  .\objs\ogmsasd\gxcbmbtn.obj  ----------------

  ?_GetControlBaseClass@CGXBitmapButton@@KGPAUCGXControlClass@@XZ @165 NONAME
  ?GetControlClass@CGXBitmapButton@@UBEPAUCGXControlClass@@XZ @166 NONAME
  ??0CGXBitmapButton@@QAE@PAVCGXGridCore@@III@Z @167 NONAME
;  ??1CGXBitmapButton@@UAE@XZ @170 NONAME
  ?OnInitChildren@CGXBitmapButton@@MAEXKKABVCRect@@@Z @171 NONAME
  ?InvertBorders@CGXBitmapButton@@UAEXPAVCDC@@ABVCRect@@@Z @172 NONAME
  ?Draw@CGXBitmapButton@@UAEXPAVCDC@@VCRect@@KKABVCGXStyle@@PBV4@@Z @173 NONAME
  ?CalcSize@CGXBitmapButton@@UAE?AVCSize@@PAVCDC@@KKABVCGXStyle@@PBV4@H@Z @174 NONAME

;----------------  .\objs\ogmsasd\gxccbbox.obj  ----------------

  ?_GetControlBaseClass@CGXComboBox@@KGPAUCGXControlClass@@XZ @182 NONAME
  ?GetControlClass@CGXComboBox@@UBEPAUCGXControlClass@@XZ @183 NONAME
  ?GetRuntimeClass@CGXComboBox@@UBEPAUCRuntimeClass@@XZ @185 NONAME
  ?GetRuntimeClass@CGXComboListBox@@UBEPAUCRuntimeClass@@XZ @187 NONAME
  ??0CGXComboListBox@@QAE@PAVCWnd@@@Z @188 NONAME
;  ?Create@CGXComboListBox@@QAEXKABUtagRECT@@PAVCWnd@@I@Z @191 NONAME
  ??1CGXComboListBox@@UAE@XZ @192 NONAME
  ?GetMessageMap@CGXComboListBox@@MBEPBUAFX_MSGMAP@@XZ @194 NONAME
  ?OnKeyDown@CGXComboListBox@@IAEXIII@Z @195 NONAME
  ?OnLButtonDown@CGXComboListBox@@IAEXIVCPoint@@@Z @196 NONAME
  ?OnLButtonUp@CGXComboListBox@@IAEXIVCPoint@@@Z @197 NONAME
  ?OnEraseBkgnd@CGXComboListBox@@IAEHPAVCDC@@@Z @198 NONAME
  ?OnKeyUp@CGXComboListBox@@IAEXIII@Z @199 NONAME
  ?OnKillFocus@CGXComboListBox@@IAEXPAVCWnd@@@Z @200 NONAME
  ?OnSysKeyUp@CGXComboListBox@@IAEXIII@Z @201 NONAME
  ?OnSysKeyDown@CGXComboListBox@@IAEXIII@Z @202 NONAME
  ??0CGXComboBox@@QAE@PAVCGXGridCore@@III@Z @203 NONAME
  ??1CGXComboBox@@UAE@XZ @207 NONAME
  ?Init@CGXComboBox@@UAEXKK@Z @208 NONAME
  ?OnNotifyMsg@CGXComboBox@@UAEXPAUtagMSG@@@Z @209 NONAME
  ?Reset@CGXComboBox@@UAEXXZ @210 NONAME
  ?SetActive@CGXComboBox@@UAEXH@Z @211 NONAME
  ?GetMessageMap@CGXComboBox@@MBEPBUAFX_MSGMAP@@XZ @213 NONAME
  ?GetCellRect@CGXComboBox@@UAE?AVCRect@@KKPAUtagRECT@@PBVCGXStyle@@@Z @214 NONAME
  ?AddBorders@CGXComboBox@@UAE?AVCSize@@V2@ABVCGXStyle@@@Z @215 NONAME
  ?OnInitChildren@CGXComboBox@@MAEXKKABVCRect@@@Z @216 NONAME
  ?CalcSize@CGXComboBox@@UAE?AVCSize@@PAVCDC@@KKABVCGXStyle@@PBV4@H@Z @217 NONAME
;  ?GetValue@CGXComboBox@@UAEHAAVCString@@@Z @218 NONAME
	?GetValue@CGXComboBox@@UAEHAAV?$CStringT@DV?$StrTraitMFC_DLL@DV?$ChTraitsCRT@D@ATL@@@@@ATL@@@Z @218 NONAME
	
;  ?GetControlText@CGXComboBox@@UAEHAAVCString@@KKPBDABVCGXStyle@@@Z @219 NONAME
	?GetControlText@CGXComboBox@@UAEHAAV?$CStringT@DV?$StrTraitMFC_DLL@DV?$ChTraitsCRT@D@ATL@@@@@ATL@@KKPBDABVCGXStyle@@@Z @219 NONAME
	
;  ?ConvertControlTextToValue@CGXComboBox@@UAEHAAVCString@@KKPBVCGXStyle@@@Z @220 NONAME
	?ConvertControlTextToValue@CGXComboBox@@UAEHAAV?$CStringT@DV?$StrTraitMFC_DLL@DV?$ChTraitsCRT@D@ATL@@@@@ATL@@KKPBVCGXStyle@@@Z @220 NONAME
  ?Store@CGXComboBox@@UAEHXZ @221 NONAME
;  ?ValidateString@CGXComboBox@@UAEHABVCString@@@Z @222 NONAME
	?ValidateString@CGXComboBox@@UAEHABV?$CStringT@DV?$StrTraitMFC_DLL@DV?$ChTraitsCRT@D@ATL@@@@@ATL@@@Z @222 NONAME

  ?ReplaceSel@CGXComboBox@@UAEXPBD@Z @223 NONAME
  ?MouseActivate@CGXComboBox@@UAEHPAVCWnd@@IIAAH@Z @224 NONAME
  ?OnGridSysKeyDown@CGXComboBox@@UAEHIII@Z @225 NONAME
  ?OnGridChar@CGXComboBox@@UAEHIII@Z @226 NONAME
  ?OnSysKeyDown@CGXComboBox@@IAEXIII@Z @227 NONAME
  ?OnClickedButton@CGXComboBox@@MAEXPAVCGXChild@@@Z @228 NONAME
  ?GetDroppedState@CGXComboBox@@UAEHXZ @229 NONAME
  ?ShowDropDown@CGXComboBox@@UAEXH@Z @230 NONAME
  ?OnGetListboxRect@CGXComboBox@@MAE?AVCRect@@ABV2@@Z @231 NONAME
  ?CreateDropDown@CGXComboBox@@UAEPAVCGXGridCombo@@PAVCWnd@@ABVCRect@@@Z @232 NONAME
  ?CreateListBox@CGXComboBox@@UAEPAVCWnd@@PAV2@I@Z @233 NONAME
  ?OnFillDroppedList@CGXComboBox@@MAEXPAVCListBox@@@Z @234 NONAME
  ?OnStoreDroppedList@CGXComboBox@@MAEXPAVCListBox@@@Z @235 NONAME
  ?OnListBoxEnd@CGXComboBox@@IAEJIJ@Z @236 NONAME
  ?DestroyDropDownWnd@CGXComboBox@@MAEXPAVCWnd@@@Z @237 NONAME
  ?OnListBoxCancel@CGXComboBox@@IAEJIJ@Z @238 NONAME
  ?OnListBoxChanged@CGXComboBox@@IAEJIJ@Z @239 NONAME
  ?OnListBoxKillFocus@CGXComboBox@@IAEJIJ@Z @240 NONAME
  ?OnSetFocus@CGXComboBox@@IAEXPAVCWnd@@@Z @241 NONAME
  ?Draw@CGXComboBox@@UAEXPAVCDC@@VCRect@@KKABVCGXStyle@@PBV4@@Z @242 NONAME
  ?CanFloatCell@CGXComboBox@@UAEHKKABVCGXStyle@@H@Z @243 NONAME
;  ?GetRuntimeClass@CGXComboBox@@WEA@BEPAUCRuntimeClass@@XZ @245 NONAME
;  ?OnCommand@CGXEditControl@@WEA@AEHIJ@Z @246 NONAME
  ?GetColor@CGXBrush@@QBEKXZ @247 NONAME
  ?GetInteriorRef@CGXStyle@@QBEABUCGXBrush@@XZ @255 NONAME
;  ?GetIncludeInterior@CGXStyle@@QBEHXZ @256 NONAME
  ?GetFontRef@CGXStyle@@QBEABVCGXFont@@XZ @257 NONAME
;  ?GetIncludeFont@CGXStyle@@QBEHXZ @258 NONAME
;  ?GetTextColor@CGXStyle@@QBEKXZ @259 NONAME 20.11.2017
;  ?GetIncludeTextColor@CGXStyle@@QBEHXZ @260 NONAME
;  ?GetIncludeValue@CGXStyle@@QBEHXZ @261 NONAME
;  ?GetValueRef@CGXStyle@@QBEABVCString@@XZ @262 NONAME
;  ?SetValue@CGXStyle@@QAEAAV1@ABVCString@@@Z @263 NONAME
;  ?GetIncludeChoiceList@CGXStyle@@QBEHXZ @266 NONAME
;  ?GetChoiceListRef@CGXStyle@@QBEABVCString@@XZ @267 NONAME
;  ?SetIgnoreFocus@CGXGridCore@@QAEXH@Z @270 NONAME
;  ?SetDropDownCell@CGXGridCore@@QAEXH@Z @271 NONAME
;  ?IsActiveFrame@CGXGridCore@@QAEHXZ @272 NONAME
;  ?IsPrinting@CGXGridCore@@QAEHXZ @274 NONAME
;  ?GetBlackWhite@CGXProperties@@QBEHXZ @275 NONAME 20.11.2017
;  ?GetPrinting@CGXProperties@@QBEHXZ @276 NONAME
;  ?GetDefaultComboBoxHeight@CGXGridParam@@QAEHXZ @277 NONAME
  ?GetProperties@CGXGridParam@@QAEPAVCGXProperties@@XZ @278 NONAME
;  ?GetLBox@CGXGridCombo@@QAEAAVCListBox@@XZ @280 NONAME

;----------------  .\objs\ogmsasd\gxccheck.obj  ----------------

  ?_GetControlBaseClass@CGXCheckBox@@KGPAUCGXControlClass@@XZ @282 NONAME
  ?GetControlClass@CGXCheckBox@@UBEPAUCGXControlClass@@XZ @283 NONAME
  ??0CGXCheckBox@@QAE@PAVCGXGridCore@@HII@Z @284 NONAME
  ??1CGXCheckBox@@UAE@XZ @287 NONAME
  ?AddUserAttributes@CGXCheckBox@@SGXPAVCGXStylesMap@@@Z @288 NONAME
  ?LoadBitmapA@CGXCheckBox@@UAEHXZ @289 NONAME
  ?OnGridSysColorChange@CGXCheckBox@@UAEXXZ @290 NONAME
  ?GetColorValue@CGXCheckBox@@UAEKKH@Z @291 NONAME
  ?ComputeCheckBoxRect@CGXCheckBox@@UAE?AVCRect@@PAVCDC@@V2@PBDK@Z @292 NONAME
  ?DrawCheckBox@CGXCheckBox@@UAEXPAVCDC@@VCRect@@IKPBD@Z @293 NONAME
  ?GetState@CGXCheckBox@@UAEIKKABVCGXStyle@@@Z @294 NONAME
  ?Draw@CGXCheckBox@@UAEXPAVCDC@@VCRect@@KKABVCGXStyle@@PBV4@@Z @295 NONAME
  ?CalcSize@CGXCheckBox@@UAE?AVCSize@@PAVCDC@@KKABVCGXStyle@@PBV4@H@Z @296 NONAME
  ?LButtonDown@CGXCheckBox@@UAEHIVCPoint@@I@Z @297 NONAME
  ?LButtonUp@CGXCheckBox@@UAEHIVCPoint@@I@Z @298 NONAME
  ?MouseMove@CGXCheckBox@@UAEHIVCPoint@@I@Z @299 NONAME
  ?LButtonDblClk@CGXCheckBox@@UAEHIVCPoint@@@Z @300 NONAME
  ?KeyPressed@CGXCheckBox@@UAEHIIII@Z @301 NONAME
  ?OnClickedButton@CGXCheckBox@@UAEXPAVCGXChild@@@Z @302 NONAME
;  ?ConvertControlTextToValue@CGXCheckBox@@UAEHAAVCString@@KKPBVCGXStyle@@@Z @303 NONAME
  ?OnGridCancelMode@CGXCheckBox@@UAEXXZ @304 NONAME
;  ?GetIncludeReadOnly@CGXStyle@@QBEHXZ @311 NONAME
  ?GetReadOnly@CGXStyle@@QBEHXZ @312 NONAME
  ?GetEnabled@CGXStyle@@QBEHXZ @322 NONAME
;  ?GetIncludeEnabled@CGXStyle@@QBEHXZ @323 NONAME
;  ?GetIncludeTriState@CGXStyle@@QBEHXZ @324 NONAME
  ?GetTriState@CGXStyle@@QBEHXZ @325 NONAME
;  ?GetUserAttribute@CGXStyle@@QBEXGAAVCString@@@Z @326 NONAME
;  ?SetValueRange@CGXGridCore@@QAEHABVCGXRange@@ABVCString@@W4GXModifyType@@HI@Z @327 NONAME
;  ?GXDrawTextLikeMultiLineEdit@@YGHPAVCDC@@PBDHVCRect@@IPAUtagRECT@@@Z @335 NONAME 20.11.2017

;----------------  .\objs\ogmsasd\gxccombo.obj  ----------------

  ??0CGXGridCombo@@QAE@PAVCWnd@@0ABVCRect@@@Z @338 NONAME
  ?AttachListBox@CGXGridCombo@@QAEXPAVCWnd@@@Z @341 NONAME
  ??1CGXGridCombo@@UAE@XZ @342 NONAME
  ?RegisterClassA@CGXGridCombo@@SGXXZ @343 NONAME
  ?UnregisterClassA@CGXGridCombo@@SGXXZ @344 NONAME
  ?GetComboBoxDropDown@CGXGridCombo@@SGHXZ @345 NONAME
;  ?GetClassNameA@CGXGridCombo@@SG?AVCString@@XZ @346 NONAME
  ?SetComboBoxDropDown@CGXGridCombo@@SGXH@Z @347 NONAME
  ?SetColor@CGXGridCombo@@QAEXKK@Z @348 NONAME
  ?GetMessageMap@CGXGridCombo@@MBEPBUAFX_MSGMAP@@XZ @350 NONAME
  ?OnCtlColor@CGXGridCombo@@IAEPAUHBRUSH__@@PAVCDC@@PAVCWnd@@I@Z @351 NONAME
  ?OnCommand@CGXGridCombo@@MAEHIJ@Z @352 NONAME
  ?OnActivate@CGXGridCombo@@IAEXIPAVCWnd@@H@Z @353 NONAME
  ?OnSysCommand@CGXGridCombo@@IAEXIJ@Z @354 NONAME

;----------------  .\objs\ogmsasd\gxcedhot.obj  ----------------

  ?_GetControlBaseClass@CGXHotSpotEdit@@KGPAUCGXControlClass@@XZ @359 NONAME
  ?GetControlClass@CGXHotSpotEdit@@UBEPAUCGXControlClass@@XZ @360 NONAME
  ?GetRuntimeClass@CGXHotSpotEdit@@UBEPAUCRuntimeClass@@XZ @362 NONAME
  ??0CGXHotSpotEdit@@QAE@PAVCGXGridCore@@I@Z @363 NONAME
;  ??1CGXHotSpotEdit@@UAE@XZ @367 NONAME
  ?Init@CGXHotSpotEdit@@UAEXKK@Z @368 NONAME
  ?GetMessageMap@CGXHotSpotEdit@@MBEPBUAFX_MSGMAP@@XZ @370 NONAME
  ?GetCellRect@CGXHotSpotEdit@@UAE?AVCRect@@KKPAUtagRECT@@PBVCGXStyle@@@Z @371 NONAME
  ?AddBorders@CGXHotSpotEdit@@UAE?AVCSize@@V2@ABVCGXStyle@@@Z @372 NONAME
  ?OnInitChildren@CGXHotSpotEdit@@MAEXKKABVCRect@@@Z @373 NONAME
  ?CanFloatCell@CGXHotSpotEdit@@UAEHKKABVCGXStyle@@H@Z @374 NONAME
;  ?GetRuntimeClass@CGXHotSpotEdit@@WEA@BEPAUCRuntimeClass@@XZ @376 NONAME

;----------------  .\objs\ogmsasd\gxcedit.obj  ----------------

  ?_GetControlBaseClass@CGXEditControl@@KGPAUCGXControlClass@@XZ @382 NONAME
	?GetThisMessageMap@CGXEditControl@@KGPBUAFX_MSGMAP@@XZ  
  ?GetControlClass@CGXEditControl@@UBEPAUCGXControlClass@@XZ @383 NONAME
  ?GetRuntimeClass@CGXEditControl@@UBEPAUCRuntimeClass@@XZ @385 NONAME
  ??0CGXEditControl@@QAE@PAVCGXGridCore@@I@Z @386 NONAME
  ??1CGXStatic@@UAE@XZ @390 NONAME
  ??1CGXEditControl@@UAE@XZ @391 NONAME
  ?CreateControl@CGXEditControl@@MAEHKPAUtagRECT@@@Z @392 NONAME
  ?GetWndPtr@CGXEditControl@@UBEPAVCWnd@@XZ @393 NONAME
  ?GetMessageMap@CGXEditControl@@MBEPBUAFX_MSGMAP@@XZ @395 NONAME
  ?OnImeStartComposition@CGXEditControl@@IAEJIJ@Z @396 NONAME
  ?OnImeEndComposition@CGXEditControl@@IAEJIJ@Z @397 NONAME
  ?SetActive@CGXEditControl@@UAEXH@Z @398 NONAME
  ?IsActive@CGXEditControl@@UAEHXZ @399 NONAME
  ?SetModify@CGXEditControl@@UAEXH@Z @400 NONAME
  ?GetModify@CGXEditControl@@UAEHXZ @401 NONAME
  ?Init@CGXEditControl@@UAEXKK@Z @402 NONAME
;  ?SetCurrentText@CGXEditControl@@UAEXABVCString@@@Z @403 NONAME
	?SetCurrentText@CGXEditControl@@UAEXABV?$CStringT@DV?$StrTraitMFC_DLL@DV?$ChTraitsCRT@D@ATL@@@@@ATL@@@Z @403 NONAME

;  ?GetCurrentText@CGXEditControl@@UAEXAAVCString@@@Z @404 NONAME
	?GetCurrentText@CGXEditControl@@UAEXAAV?$CStringT@DV?$StrTraitMFC_DLL@DV?$ChTraitsCRT@D@ATL@@@@@ATL@@@Z	@404 NONAME
	
;  ?GetValue@CGXEditControl@@UAEHAAVCString@@@Z @405 NONAME
	?GetValue@CGXEditControl@@UAEHAAV?$CStringT@DV?$StrTraitMFC_DLL@DV?$ChTraitsCRT@D@ATL@@@@@ATL@@@Z @405 NONAME
  ?CanFloatCell@CGXEditControl@@UAEHKKABVCGXStyle@@H@Z @406 NONAME
  ?OnEndEditing@CGXEditControl@@UAEHXZ @407 NONAME
  ?SetValue@CGXEditControl@@UAEXPBD@Z @408 NONAME
  ?Store@CGXEditControl@@UAEHXZ @409 NONAME
  ?Draw@CGXEditControl@@UAEXPAVCDC@@VCRect@@KKABVCGXStyle@@PBV4@@Z @410 NONAME
  ?Hide@CGXEditControl@@UAEXXZ @411 NONAME
  ?LButtonUp@CGXEditControl@@UAEHIVCPoint@@I@Z @412 NONAME
  ?LButtonDblClk@CGXEditControl@@UAEHIVCPoint@@@Z @413 NONAME
  ?OnGridKeyDown@CGXEditControl@@UAEHIII@Z @414 NONAME
  ?OnGridChar@CGXEditControl@@UAEHIII@Z @415 NONAME
;  ?OnGridDoubleByteChar@CGXEditControl@@UAEHABVCString@@II@Z @416 NONAME
	?OnGridDoubleByteChar@CGXEditControl@@UAEHABV?$CStringT@DV?$StrTraitMFC_DLL@DV?$ChTraitsCRT@D@ATL@@@@@ATL@@II@Z @416 NONAME
	
  ?Cut@CGXEditControl@@UAEHXZ @417 NONAME
  ?Copy@CGXEditControl@@UAEHXZ @418 NONAME
  ?Paste@CGXEditControl@@UAEHXZ @419 NONAME
  ?OnKeyDown@CGXEditControl@@IAEXIII@Z @420 NONAME
  ?OnChar@CGXEditControl@@IAEXIII@Z @421 NONAME
  ?OnProcessChar@CGXEditControl@@UAEHIII@Z @422 NONAME
  ?OnKeyUp@CGXEditControl@@IAEXIII@Z @423 NONAME
  ?OnSysKeyDown@CGXEditControl@@IAEXIII@Z @424 NONAME
  ?OnSysChar@CGXEditControl@@IAEXIII@Z @425 NONAME
  ?OnSysKeyUp@CGXEditControl@@IAEXIII@Z @426 NONAME
  ?OnLButtonDown@CGXEditControl@@IAEXIVCPoint@@@Z @427 NONAME
  ?OnCommand@CGXEditControl@@UAEHIJ@Z @428 NONAME
  ?FindTextA@CGXEditControl@@UAEHABUGX_FR_STATE@@KKHH@Z @429 NONAME
  ?ReplaceSel@CGXEditControl@@UAEXPBD@Z @432 NONAME
  ?ReplaceAll@CGXEditControl@@UAEHABUGX_FR_STATE@@KK@Z @433 NONAME
;  ?GetSelectedText@CGXEditControl@@UAEHAAVCString@@@Z @435 NONAME
	?GetSelectedText@CGXEditControl@@UAEHAAV?$CStringT@DV?$StrTraitMFC_DLL@DV?$ChTraitsCRT@D@ATL@@@@@ATL@@@Z @435 NONAME

  ?CalcTextPosUnderPt@CGXEditControl@@QAEHVCPoint@@@Z @436 NONAME
  ?SetWrapText@CGXEditControl@@QAEXH@Z @437 NONAME
  ?SetAllowEnter@CGXEditControl@@QAEXH@Z @438 NONAME
  ?SetVertScrollBar@CGXEditControl@@QAEXH@Z @439 NONAME
  ?SetCellColor@CGXEditControl@@QAEXK@Z @440 NONAME
  ?SetTextAlign@CGXEditControl@@QAEXI@Z @441 NONAME
  ?UpdateEditStyle@CGXEditControl@@IAEHXZ @442 NONAME
  ?GetLastVisibleLine@CGXEditControl@@IAEHPAUtagRECT@@@Z @443 NONAME
  ?CalcEditStyle@CGXEditControl@@MAEKPAUtagRECT@@AAH@Z @444 NONAME
  ?OnKillFocus@CGXEditControl@@IAEXPAVCWnd@@@Z @445 NONAME
  ?OnGetDlgCode@CGXEditControl@@IAEIXZ @446 NONAME
  ?OnEraseBkgnd@CGXEditControl@@IAEHPAVCDC@@@Z @447 NONAME
  ?OnShowWindow@CGXEditControl@@IAEXHI@Z @448 NONAME
  ?OnSetFocus@CGXEditControl@@IAEXPAVCWnd@@@Z @449 NONAME
  ?OnContextMenu@CGXEditControl@@IAEXPAVCWnd@@VCPoint@@@Z @450 NONAME
;  ?GetRuntimeClass@CGXEditControl@@WEA@BEPAUCRuntimeClass@@XZ @452 NONAME
  ?GetSize@CGXFont@@QBENXZ @454 NONAME
;  ?GetIncludeSize@CGXFont@@QBEHXZ @456 NONAME
;  ?SetSize@CGXFont@@QAEAAV1@N@Z @457 NONAME 20.11.2017
;  ?Release@CGXFont@@IAEXXZ @458 NONAME
;  ?GetFontKey@CGXFont@@QBE_JXZ @459 NONAME
;  ?SetIncludeSize@CGXFont@@QAEAAV1@H@Z @460 NONAME
;  ?SetOrientation@CGXFont@@QAEAAV1@J@Z @461 NONAME 20.11.2017
;  ?SetIncludeOrientation@CGXFont@@QAEAAV1@H@Z @462 NONAME
;  ?GetIncludeMaxLength@CGXStyle@@QBEHXZ @468 NONAME
  ?GetMaxLength@CGXStyle@@QBEGXZ @469 NONAME
;  ?GetIncludeVertScrollBar@CGXStyle@@QBEHXZ @470 NONAME
  ?GetVertScrollBar@CGXStyle@@QBEHXZ @471 NONAME
;  ?GetIncludeAutoSize@CGXStyle@@QBEHXZ @478 NONAME
  ?GetAutoSize@CGXStyle@@QBEHXZ @479 NONAME
  ?GetAllowEnter@CGXStyle@@QBEHXZ @480 NONAME
;  ?GetIncludeAllowEnter@CGXStyle@@QBEHXZ @481 NONAME
;  ?AlignDTToTA@@YGII@Z @483 NONAME
;  ?AlignTAToES@@YGJI@Z @484 NONAME
;  ?SetExpressionRowCol@CGXGridCore@@QAEHKKABVCString@@I@Z @486 NONAME
  ?EvalVisibleFloatMergeCells@CGXGridCore@@QAEHABVCGXRange@@HPAV2@H@Z @494 NONAME
;  ?GetTopRow@CGXGridCore@@QAEKXZ @495 NONAME 11.12.2017
;  ?GetLeftCol@CGXGridCore@@QAEKXZ @496 NONAME 11.12.2017
;  ?GetActivateCellFlags@CGXGridParam@@QAEGXZ @500 NONAME
  ?GetRangeList@CGXGridParam@@QAEPAVCGXRangeList@@XZ @502 NONAME
;  ?GXGetMultiLineTextPosUnderPt@@YGHPAVCDC@@PBDHVCRect@@IVCPoint@@@Z @503 NONAME
;  ?GXGetMultiLineTextBreakCount@@YGHPAVCDC@@PBDHVCRect@@I@Z @504 NONAME
  ?GetSel@CGXEditControl@@QBEXAAH0@Z @505 NONAME

;----------------  .\objs\ogmsasd\gxcedspn.obj  ----------------

  ?_GetControlBaseClass@CGXSpinEdit@@KGPAUCGXControlClass@@XZ @511 NONAME
  ?GetControlClass@CGXSpinEdit@@UBEPAUCGXControlClass@@XZ @512 NONAME
  ?GetRuntimeClass@CGXSpinEdit@@UBEPAUCRuntimeClass@@XZ @514 NONAME
  ??0CGXSpinEdit@@QAE@PAVCGXGridCore@@I@Z @515 NONAME
;  ??1CGXSpinEdit@@UAE@XZ @519 NONAME
  ?AddUserAttributes@CGXSpinEdit@@SGXPAVCGXStylesMap@@@Z @520 NONAME
  ?Init@CGXSpinEdit@@UAEXKK@Z @521 NONAME
  ?GetMessageMap@CGXSpinEdit@@MBEPBUAFX_MSGMAP@@XZ @523 NONAME
  ?GetCellRect@CGXSpinEdit@@UAE?AVCRect@@KKPAUtagRECT@@PBVCGXStyle@@@Z @524 NONAME
  ?AddBorders@CGXSpinEdit@@UAE?AVCSize@@V2@ABVCGXStyle@@@Z @525 NONAME
  ?OnInitChildren@CGXSpinEdit@@MAEXKKABVCRect@@@Z @526 NONAME
  ?LButtonDown@CGXSpinEdit@@MAEHIVCPoint@@I@Z @527 NONAME
  ?LButtonUp@CGXSpinEdit@@MAEHIVCPoint@@I@Z @528 NONAME
  ?OnClickedButton@CGXSpinEdit@@MAEXPAVCGXChild@@@Z @529 NONAME
  ?CanFloatCell@CGXSpinEdit@@UAEHKKABVCGXStyle@@H@Z @530 NONAME
;  ?GetRuntimeClass@CGXSpinEdit@@WEA@BEPAUCRuntimeClass@@XZ @532 NONAME
  ?SetHorizontalAlignment@CGXStyle@@QAEAAV1@K@Z @538 NONAME
;  ?SetIncludeHorizontalAlignment@CGXStyle@@QAEAAV1@H@Z @540 NONAME
  ?SetVerticalAlignment@CGXStyle@@QAEAAV1@K@Z @541 NONAME
;  ?SetIncludeVerticalAlignment@CGXStyle@@QAEAAV1@H@Z @542 NONAME
;  ?SetControl@CGXStyle@@QAEAAV1@G@Z @543 NONAME
;  ?SetIncludeControl@CGXStyle@@QAEAAV1@H@Z @544 NONAME

;----------------  .\objs\ogmsasd\gxcharro.obj  ----------------

  ??0CGXArrowButton@@QAE@PAVCGXControl@@@Z @552 NONAME
;  ??1CGXArrowButton@@UAE@XZ @555 NONAME
;  ??1CGXButton@@UAE@XZ @556 NONAME
  ?MouseMove@CGXArrowButton@@UAEHIVCPoint@@@Z @557 NONAME
  ?LButtonDown@CGXArrowButton@@UAEHIVCPoint@@@Z @558 NONAME
  ?LButtonUp@CGXArrowButton@@UAEHIVCPoint@@@Z @559 NONAME
  ??0CGXUpArrowButton@@QAE@PAVCGXControl@@@Z @560 NONAME
;  ??1CGXUpArrowButton@@UAE@XZ @563 NONAME
  ?Draw@CGXUpArrowButton@@UAEXPAVCDC@@H@Z @564 NONAME
  ??0CGXDownArrowButton@@QAE@PAVCGXControl@@@Z @565 NONAME
;  ??1CGXDownArrowButton@@UAE@XZ @568 NONAME
  ?Draw@CGXDownArrowButton@@UAEXPAVCDC@@H@Z @569 NONAME

;----------------  .\objs\ogmsasd\gxchbmbt.obj  ----------------

  ??0CGXBitmapButtonChild@@QAE@PAVCGXControl@@@Z @570 NONAME
  ??1CGXBitmapButtonChild@@UAE@XZ @573 NONAME
  ?LoadBitmaps@CGXBitmapButtonChild@@QAEHPBD00@Z @575 NONAME
  ?LoadBitmaps@CGXBitmapButtonChild@@QAEHIII@Z @576 NONAME
  ?Draw@CGXBitmapButtonChild@@UAEXPAVCDC@@H@Z @577 NONAME
  ?GetSize@CGXBitmapButtonChild@@UAE?AVCSize@@XZ @578 NONAME
  ?GetSize@CGXBitmapButtonChild@@QAE?AVCSize@@PAX@Z @579 NONAME

;----------------  .\objs\ogmsasd\gxchbtn.obj  ----------------

  ??0CGXButton@@QAE@PAVCGXControl@@@Z @581 NONAME
  ?Draw@CGXButton@@UAEXPAVCDC@@H@Z @585 NONAME
  ?LButtonDown@CGXButton@@UAEHIVCPoint@@@Z @586 NONAME
  ?LButtonUp@CGXButton@@UAEHIVCPoint@@@Z @587 NONAME
  ?MouseMove@CGXButton@@UAEHIVCPoint@@@Z @588 NONAME
  ?OnGridKeyDown@CGXButton@@UAEHIII@Z @589 NONAME
  ?OnGridKeyUp@CGXButton@@UAEHIII@Z @590 NONAME
  ?OnGridCancelMode@CGXButton@@UAEXXZ @591 NONAME
;  ?GXDrawFocusText@@YGXPAVCDC@@VCRect@@HPBDI@Z @592 NONAME
;  ?GridWnd@CGXChild@@QAEPAVCWnd@@XZ @593 NONAME

;----------------  .\objs\ogmsasd\gxchcbbt.obj  ----------------

  ??0CGXComboBoxButton@@QAE@PAVCGXControl@@@Z @594 NONAME
;  ??1CGXComboBoxButton@@UAE@XZ @597 NONAME
  ?Draw@CGXComboBoxButton@@UAEXPAVCDC@@H@Z @599 NONAME

;----------------  .\objs\ogmsasd\gxchead.obj  ----------------

  ?_GetControlBaseClass@CGXHeader@@KGPAUCGXControlClass@@XZ @601 NONAME
  ?GetControlClass@CGXHeader@@UBEPAUCGXControlClass@@XZ @602 NONAME
  ??0CGXHeader@@QAE@PAVCGXGridCore@@@Z @603 NONAME
;  ??1CGXHeader@@UAE@XZ @606 NONAME
  ?Draw@CGXHeader@@UAEXPAVCDC@@VCRect@@KKABVCGXStyle@@PBV4@@Z @608 NONAME
  ?InvertBorders@CGXHeader@@UAEXPAVCDC@@ABVCRect@@@Z @609 NONAME
;  ?GetIncludeOrientation@CGXFont@@QBEHXZ @610 NONAME
  ?GetOrientation@CGXFont@@QBEJXZ @611 NONAME
;  ??0CGXPen@@QAE@IHK@Z @613 NONAME 20.11.2017
  ?GetStyle@CGXPen@@QBEIXZ @614 NONAME
;  ?GetInclude@CGXPen@@QBEHXZ @615 NONAME
  ?GetBordersRef@CGXStyle@@QBEABUCGXPen@@W4GXBorderType@@@Z @620 NONAME
;  ?GetIncludeBorders@CGXStyle@@QBEHXZ @621 NONAME
  ?GetIncludeBorders@CGXStyle@@QBEHW4GXBorderType@@@Z @622 NONAME
  ?GetDraw3dFrame@CGXStyle@@QBE?AW4GXDraw3dFrameType@@XZ @629 NONAME
;  ?GetIncludeDraw3dFrame@CGXStyle@@QBEHXZ @630 NONAME
;  ?GetDisplayHorzLines@CGXProperties@@QBEHXZ @633 NONAME 20.11.2017
;  ?GetDisplayVertLines@CGXProperties@@QBEHXZ @635 NONAME 20.11.2017
;  ?GetDisplay3dButtons@CGXProperties@@QBEHXZ @636 NONAME
;  ?GXDraw3dFrame@@YGXPAVCDC@@HHHHHKK@Z @641 NONAME

;----------------  .\objs\ogmsasd\gxchhsbt.obj  ----------------

  ??0CGXHotSpotButton@@QAE@PAVCGXControl@@@Z @642 NONAME
;  ??1CGXHotSpotButton@@UAE@XZ @645 NONAME
  ?Draw@CGXHotSpotButton@@UAEXPAVCDC@@H@Z @647 NONAME

;----------------  .\objs\ogmsasd\gxchild.obj  ----------------

  ??0CGXChild@@QAE@PAVCGXControl@@@Z @648 NONAME
  ??1CGXChild@@UAE@XZ @651 NONAME
  ?SetRect@CGXChild@@UAEXABVCRect@@@Z @652 NONAME
  ?GetRect@CGXChild@@UAE?AVCRect@@XZ @653 NONAME
  ?Intersects@CGXChild@@UAEHVCPoint@@@Z @654 NONAME
  ?HasFocus@CGXChild@@UAEHXZ @655 NONAME
  ?SetText@CGXChild@@UAEXPBD@Z @656 NONAME
;  ?GetText@CGXChild@@UAE?AVCString@@XZ @657 NONAME
  ?Refresh@CGXChild@@UAEXXZ @658 NONAME
  ?LButtonDown@CGXChild@@UAEHIVCPoint@@@Z @659 NONAME
  ?LButtonUp@CGXChild@@UAEHIVCPoint@@@Z @660 NONAME
  ?MButtonDown@CGXChild@@UAEHIVCPoint@@@Z @661 NONAME
  ?MButtonUp@CGXChild@@UAEHIVCPoint@@@Z @662 NONAME
  ?RButtonDown@CGXChild@@UAEHIVCPoint@@@Z @663 NONAME
  ?RButtonUp@CGXChild@@UAEHIVCPoint@@@Z @664 NONAME
  ?RButtonDblClk@CGXChild@@UAEHIVCPoint@@@Z @665 NONAME
  ?LButtonDblClk@CGXChild@@UAEHIVCPoint@@@Z @666 NONAME
  ?MButtonDblClk@CGXChild@@UAEHIVCPoint@@@Z @667 NONAME
  ?MouseMove@CGXChild@@UAEHIVCPoint@@@Z @668 NONAME
  ?MouseMoveOver@CGXChild@@UAEHKKIVCPoint@@@Z @669 NONAME
  ?KeyPressed@CGXChild@@UAEHIIII@Z @670 NONAME
  ?OnGridKeyDown@CGXChild@@UAEHIII@Z @671 NONAME
  ?OnGridKeyUp@CGXChild@@UAEHIII@Z @672 NONAME
  ?OnGridChar@CGXChild@@UAEHIII@Z @673 NONAME
;  ?OnGridDoubleByteChar@CGXChild@@UAEHABVCString@@II@Z @674 NONAME
  ?OnGridDeadChar@CGXChild@@UAEHIII@Z @675 NONAME
  ?OnGridSysKeyDown@CGXChild@@UAEHIII@Z @676 NONAME
  ?OnGridSysKeyUp@CGXChild@@UAEHIII@Z @677 NONAME
  ?OnGridSysChar@CGXChild@@UAEHIII@Z @678 NONAME
  ?OnGridSysDeadChar@CGXChild@@UAEHIII@Z @679 NONAME
  ?OnGridWinIniChange@CGXChild@@UAEXPBD@Z @680 NONAME
  ?OnGridSysColorChange@CGXChild@@UAEXXZ @681 NONAME
  ?OnGridCancelMode@CGXChild@@UAEXXZ @682 NONAME

;----------------  .\objs\ogmsasd\gxclear.obj  ----------------

  ?ImplementClearCells@CGXGridCore@@QAEXXZ @683 NONAME
;  ??0CGXGridClearCellsImp@@QAE@XZ @684 NONAME

;  ??0CGXAbstractGridClearCellsImp@@QAE@XZ @686 NONAME

  ?CanClear@CGXGridClearCellsImp@@UAEHPAVCGXGridCore@@@Z @688 NONAME
  ?Clear@CGXGridClearCellsImp@@UAEHPAVCGXGridCore@@H@Z @689 NONAME
;  ??0CGXRangeList@@QAE@XZ @690 NONAME
  ?ClearCells@CGXGridClearCellsImp@@UAEHPAVCGXGridCore@@ABVCGXRangeList@@H@Z @693 NONAME
  ?GetControl@CGXStyle@@QBEGXZ @696 NONAME
;  ?GetIncludeControl@CGXStyle@@QBEHXZ @698 NONAME
;  ?GetNext@CGXRangeList@@QBEPAVCGXRange@@AAPAU__POSITION@@@Z @700 NONAME
;  ?GetRollbackConfirmedState@CGXLongOperation@@SGHXZ @703 NONAME
;  ?SetCanRollback@CGXLongOperation@@QAEXH@Z @704 NONAME
;  ?SetLockedState@CGXLongOperation@@SGXH@Z @705 NONAME
  ?GetCurrentLevel@CGXLongOperation@@SGHXZ @706 NONAME
;  ?GetLockedState@CGXLongOperation@@SGHXZ @708 NONAME

;----------------  .\objs\ogmsasd\GXCOLL.obj  ----------------

  ?CreateObject@CGXCollMapDWordToLong@@SGPAVCObject@@XZ @716 NONAME
  ?GetRuntimeClass@CGXCollMapDWordToLong@@UBEPAUCRuntimeClass@@XZ @718 NONAME
  ??5@YGAAVCArchive@@AAV0@AAPAVCGXCollMapDWordToLong@@@Z @719 NONAME
  ?CreateObject@CMapNdxToOb@@SGPAVCObject@@XZ @720 NONAME
  ?GetRuntimeClass@CMapNdxToOb@@UBEPAUCRuntimeClass@@XZ @722 NONAME
  ??5@YGAAVCArchive@@AAV0@AAPAVCMapNdxToOb@@@Z @723 NONAME
  ?GetRuntimeClass@CGXMapFontData@@UBEPAUCRuntimeClass@@XZ @725 NONAME
  ?GetRuntimeClass@CGXMapByte8ToPtr@@UBEPAUCRuntimeClass@@XZ @727 NONAME
  ?GetRuntimeClass@CGXPtrArrayPtrArray@@UBEPAUCRuntimeClass@@XZ @729 NONAME
  ?CreateObject@CGXMapDWordToLong@@SGPAVCObject@@XZ @730 NONAME
;  ??0CGXMapDWordToLong@@QAE@XZ @731 NONAME
  ??1CGXMapDWordToLong@@UAE@XZ @734 NONAME
  ?GetRuntimeClass@CGXMapDWordToLong@@UBEPAUCRuntimeClass@@XZ @736 NONAME
  ??5@YGAAVCArchive@@AAV0@AAPAVCGXMapDWordToLong@@@Z @737 NONAME
  ?CreateObject@CGXMapCellToOb@@SGPAVCObject@@XZ @738 NONAME
;  ??0CGXMapCellToOb@@QAE@XZ @739 NONAME
  ??1CGXMapCellToOb@@UAE@XZ @742 NONAME
  ?GetRuntimeClass@CGXMapCellToOb@@UBEPAUCRuntimeClass@@XZ @744 NONAME
  ??5@YGAAVCArchive@@AAV0@AAPAVCGXMapCellToOb@@@Z @745 NONAME
  ?Insert@CGXMapDWordToLong@@QAEXKK@Z @746 NONAME
  ?Remove@CGXMapDWordToLong@@QAEXKK@Z @747 NONAME
  ?Move@CGXMapDWordToLong@@QAEXKKK@Z @748 NONAME
  ??4CGXMapDWordToLong@@UAEAAV0@ABV0@@Z @749 NONAME
  ?InsertRows@CGXMapCellToOb@@QAEXKK@Z @750 NONAME
  ?InsertCols@CGXMapCellToOb@@QAEXKK@Z @751 NONAME
  ?RemoveRows@CGXMapCellToOb@@QAEXKK@Z @752 NONAME
  ?RemoveCols@CGXMapCellToOb@@QAEXKK@Z @753 NONAME
  ?MoveRows@CGXMapCellToOb@@QAEXKKK@Z @754 NONAME
  ?MoveCols@CGXMapCellToOb@@QAEXKKK@Z @755 NONAME
  ?Create@CGXPlex@@SGPAU1@AAPAU1@II@Z @756 NONAME
  ?FreeDataChain@CGXPlex@@QAEXXZ @757 NONAME
  ??0CGXCollMapDWordToLong@@QAE@H@Z @758 NONAME
  ?InitHashTable@CGXCollMapDWordToLong@@QAEXI@Z @761 NONAME
  ?RemoveAll@CGXCollMapDWordToLong@@QAEXXZ @762 NONAME
  ??1CGXCollMapDWordToLong@@UAE@XZ @763 NONAME
  ?NewAssoc@CGXCollMapDWordToLong@@IAEPAUCAssoc@1@XZ @764 NONAME
  ?FreeAssoc@CGXCollMapDWordToLong@@IAEXPAUCAssoc@1@@Z @765 NONAME
  ?GetAssocAt@CGXCollMapDWordToLong@@IBEPAUCAssoc@1@KAAI@Z @766 NONAME
;  ?HashKey@CGXCollMapDWordToLong@@QBEIK@Z @767 NONAME
  ?Lookup@CGXCollMapDWordToLong@@QBEHKAAJ@Z @768 NONAME
  ??ACGXCollMapDWordToLong@@QAEAAJK@Z @769 NONAME
  ?RemoveKey@CGXCollMapDWordToLong@@QAEHK@Z @770 NONAME
  ?GetNextAssoc@CGXCollMapDWordToLong@@QBEXAAPAU__POSITION@@AAKAAJ@Z @771 NONAME
  ?Serialize@CGXCollMapDWordToLong@@UAEXAAVCArchive@@@Z @772 NONAME
;  ?Dump@CGXCollMapDWordToLong@@UBEXAAVCDumpContext@@@Z @773 NONAME
  ?AssertValid@CGXCollMapDWordToLong@@UBEXXZ @774 NONAME
  ??0CMapNdxToOb@@QAE@H@Z @775 NONAME
  ?InitHashTable@CMapNdxToOb@@QAEXIH@Z @778 NONAME
  ?RemoveAll@CMapNdxToOb@@QAEXXZ @779 NONAME
  ??1CMapNdxToOb@@UAE@XZ @780 NONAME
  ?NewAssoc@CMapNdxToOb@@IAEPAUCAssoc@1@XZ @781 NONAME
  ?FreeAssoc@CMapNdxToOb@@IAEXPAUCAssoc@1@@Z @782 NONAME
  ?GetAssocAt@CMapNdxToOb@@IBEPAUCAssoc@1@VGXNDX@@AAI@Z @783 NONAME
;  ?HashKey@CMapNdxToOb@@QBEIVGXNDX@@@Z @784 NONAME
  ?Lookup@CMapNdxToOb@@QBEHVGXNDX@@AAPAVCObject@@@Z @785 NONAME
  ??ACMapNdxToOb@@QAEAAPAVCObject@@VGXNDX@@@Z @786 NONAME
  ?RemoveKey@CMapNdxToOb@@QAEHVGXNDX@@@Z @787 NONAME
  ?GetNextAssoc@CMapNdxToOb@@QBEXAAPAU__POSITION@@AAVGXNDX@@AAPAVCObject@@@Z @788 NONAME
  ?Serialize@CMapNdxToOb@@UAEXAAVCArchive@@@Z @789 NONAME
;  ?Dump@CMapNdxToOb@@UBEXAAVCDumpContext@@@Z @790 NONAME
  ?AssertValid@CMapNdxToOb@@UBEXXZ @791 NONAME
  ??0CGXMapByte8ToPtr@@QAE@H@Z @792 NONAME
  ?InitHashTable@CGXMapByte8ToPtr@@QAEXIH@Z @795 NONAME
  ?RemoveAll@CGXMapByte8ToPtr@@QAEXXZ @796 NONAME
  ??1CGXMapByte8ToPtr@@UAE@XZ @797 NONAME
  ?NewAssoc@CGXMapByte8ToPtr@@IAEPAUCAssoc@1@XZ @798 NONAME
  ?FreeAssoc@CGXMapByte8ToPtr@@IAEXPAUCAssoc@1@@Z @799 NONAME
  ?GetAssocAt@CGXMapByte8ToPtr@@IBEPAUCAssoc@1@_JAAI@Z @800 NONAME
;  ?HashKey@CGXMapByte8ToPtr@@QBEI_J@Z @801 NONAME
  ?Lookup@CGXMapByte8ToPtr@@QBEH_JAAPAX@Z @802 NONAME
  ??ACGXMapByte8ToPtr@@QAEAAPAX_J@Z @803 NONAME
  ?RemoveKey@CGXMapByte8ToPtr@@QAEH_J@Z @804 NONAME
  ?GetNextAssoc@CGXMapByte8ToPtr@@QBEXAAPAU__POSITION@@AA_JAAPAX@Z @805 NONAME
;  ?Dump@CGXMapByte8ToPtr@@UBEXAAVCDumpContext@@@Z @806 NONAME
  ?AssertValid@CGXMapByte8ToPtr@@UBEXXZ @807 NONAME
  ??0CGXMapFontData@@QAE@H@Z @808 NONAME
  ?InitHashTable@CGXMapFontData@@QAEXIH@Z @811 NONAME
  ?RemoveAll@CGXMapFontData@@QAEXXZ @812 NONAME
  ??1CGXMapFontData@@UAE@XZ @813 NONAME
  ?NewAssoc@CGXMapFontData@@IAEPAUCAssoc@1@XZ @814 NONAME
  ?FreeAssoc@CGXMapFontData@@IAEXPAUCAssoc@1@@Z @815 NONAME
  ?GetAssocAt@CGXMapFontData@@IBEPAUCAssoc@1@_JAAI@Z @816 NONAME
;  ?HashKey@CGXMapFontData@@QBEI_J@Z @817 NONAME
  ?Lookup@CGXMapFontData@@QBEH_JAAUCGXFontData@@@Z @818 NONAME
  ??ACGXMapFontData@@QAEAAUCGXFontData@@_J@Z @819 NONAME
  ?RemoveKey@CGXMapFontData@@QAEH_J@Z @820 NONAME
  ?GetNextAssoc@CGXMapFontData@@QBEXAAPAU__POSITION@@AA_JAAUCGXFontData@@@Z @821 NONAME
;  ?data@CGXPlex@@QAEPAXXZ @822 NONAME
;  ??0GXNDX@@QAE@XZ @823 NONAME
;  ??0GXNDX@@QAE@ABV0@@Z @824 NONAME
;  ??0GXNDX@@QAE@KK@Z @825 NONAME
;  ??BGXNDX@@QAEKXZ @826 NONAME
;  ??4GXNDX@@QAEABV0@ABV0@@Z @827 NONAME
;  ?Dump@CGXMapFontData@@UBEXAAVCDumpContext@@@Z @828 NONAME
  ?AssertValid@CGXMapFontData@@UBEXXZ @829 NONAME
;  ??8@YGHABVGXNDX@@0@Z @830 NONAME
;  ??6@YGAAVCArchive@@AAV0@ABVGXNDX@@@Z @831 NONAME
  ??1CGXPtrArrayPtrArray@@UAE@XZ @832 NONAME
;  ??5@YGAAVCArchive@@AAV0@AAVGXNDX@@@Z @834 NONAME
  ?DeleteAt@CGXPtrArrayPtrArray@@QAEXHH@Z @835 NONAME
;  ?SetAt@CGXCollMapDWordToLong@@QAEXKJ@Z @836 NONAME
;  ?GetStartPosition@CGXCollMapDWordToLong@@QBEPAU__POSITION@@XZ @837 NONAME
  ?DeleteAll@CGXPtrArrayPtrArray@@QAEXXZ @838 NONAME
  ?GXDeleteAllObjects@@YGXAAVCMapPtrToPtr@@@Z @839 NONAME
  ?GXDeleteAllObjects@@YGXAAVCObList@@@Z @840 NONAME
;  ?SetAt@CMapNdxToOb@@QAEXVGXNDX@@PAVCObject@@@Z @841 NONAME
  ?GXDeleteAllObjects@@YGXAAVCObArray@@@Z @842 NONAME
;  ?GetStartPosition@CMapNdxToOb@@QBEPAU__POSITION@@XZ @843 NONAME
  ??1CGXAutoDeleteObList@@EAE@XZ @844 NONAME
;  ?GetStartPosition@CGXMapByte8ToPtr@@QBEPAU__POSITION@@XZ @847 NONAME
;  ?GetStartPosition@CGXMapFontData@@QBEPAU__POSITION@@XZ @848 NONAME
;  ?GetAt@CGXPtrArrayPtrArray@@QBEPAVCPtrArray@@H@Z @850 NONAME

;----------------  .\objs\ogmsasd\gxcorabs.obj  ----------------

  ?m_bDndGridSource@CGXGridCore@@2HA @851 NONAME
  ?m_nDndColsCopied@CGXGridCore@@2KA @852 NONAME
  ?m_nDndRowsCopied@CGXGridCore@@2KA @853 NONAME
  ?SetAdvancedUndo@CGXGridCore@@UAEHH@Z @854 NONAME
  ?GetAdvancedUndoInfo@CGXGridCore@@UAEPAVCObject@@XZ @855 NONAME
  ?UndoAdvanced@CGXGridCore@@UAEHPAVCObject@@HH@Z @856 NONAME
  ?CleanAdvancedUndo@CGXGridCore@@UAEXXZ @857 NONAME
  ?ExecuteCommand@CGXGridCore@@UAEHPAVCGXCommand@@PAV1@W4GXCmdType@@@Z @858 NONAME
  ?AddCommand@CGXGridCore@@UAEXPAVCGXCommand@@W4GXCmdType@@@Z @859 NONAME
  ?RemoveCommand@CGXGridCore@@UAEXW4GXCmdType@@@Z @860 NONAME
  ?Undo@CGXGridCore@@UAEHXZ @861 NONAME
  ?Redo@CGXGridCore@@UAEHXZ @862 NONAME
  ?BeginTrans@CGXGridCore@@UAEXPBD@Z @863 NONAME
  ?CommitTrans@CGXGridCore@@UAEXXZ @864 NONAME
  ?Rollback@CGXGridCore@@UAEXXZ @865 NONAME
  ?OnCellUndone@CGXGridCore@@UAEXKKH@Z @866 NONAME
  ?CanUndo@CGXGridCore@@UAEHPAVCCmdUI@@@Z @867 NONAME
  ?CanRedo@CGXGridCore@@UAEHPAVCCmdUI@@@Z @868 NONAME
  ?SortRows@CGXGridCore@@UAEXVCGXRange@@AAVCGXSortInfoArray@@I@Z @869 NONAME
  ?MoveDataRows@CGXGridCore@@UAEHABVCGXRange@@ABVCDWordArray@@IW4GXCmdType@@@Z @870 NONAME
  ?StoreMoveDataRows@CGXGridCore@@UAEHABVCGXRange@@ABVCDWordArray@@@Z @871 NONAME
  ?UpdateMoveDataRows@CGXGridCore@@UAEXABVCGXRange@@IH@Z @872 NONAME
  ?OnGetSortRowsKey@CGXGridCore@@UAEXKABVCGXSortInfoArray@@AAVCStringArray@@@Z @873 NONAME
  ?SortCols@CGXGridCore@@UAEXVCGXRange@@AAVCGXSortInfoArray@@I@Z @874 NONAME
  ?MoveDataCols@CGXGridCore@@UAEHABVCGXRange@@ABVCDWordArray@@IW4GXCmdType@@@Z @875 NONAME
  ?StoreMoveDataCols@CGXGridCore@@UAEHABVCGXRange@@ABVCDWordArray@@@Z @876 NONAME
  ?UpdateMoveDataCols@CGXGridCore@@UAEXABVCGXRange@@IH@Z @877 NONAME
  ?OnGetSortColsKey@CGXGridCore@@UAEXKABVCGXSortInfoArray@@AAVCStringArray@@@Z @878 NONAME
;  ?GetSortKey@CGXGridCore@@UAEXPAVCGXControl@@KKABUCGXSortInfo@@ABVCGXStyle@@AAVCString@@@Z @879 NONAME
	?GetSortKey@CGXGridCore@@UAEXPAVCGXControl@@KKABUCGXSortInfo@@ABVCGXStyle@@AAV?$CStringT@DV?$StrTraitMFC_DLL@DV?$ChTraitsCRT@D@ATL@@@@@ATL@@@Z @879 NONAME
  ?SortKeys@CGXGridCore@@UAEXABVCGXSortInfoArray@@AAVCPtrArray@@@Z @880 NONAME
  ?OnDndCacheGlobalData@CGXGridCore@@UAEHPAVCGXNoOleDataSourceProxy@@ABVCGXRangeList@@AAK2@Z @881 NONAME
  ?DndStartDragDrop@CGXGridCore@@UAEHKK@Z @882 NONAME
  ?OnGridDragScroll@CGXGridCore@@UAEKKVCPoint@@@Z @883 NONAME
  ?OnGridDragEnter@CGXGridCore@@UAEKPAVCGXNoOleDataObjectProxy@@KVCPoint@@@Z @884 NONAME
  ?OnGridDragOver@CGXGridCore@@UAEKPAVCGXNoOleDataObjectProxy@@KVCPoint@@@Z @885 NONAME
  ?OnGridDropEx@CGXGridCore@@UAEKPAVCGXNoOleDataObjectProxy@@KKVCPoint@@@Z @886 NONAME
  ?OnGridDragLeave@CGXGridCore@@UAEXXZ @887 NONAME
  ?OnGridDrop@CGXGridCore@@UAEHPAVCGXNoOleDataObjectProxy@@KVCPoint@@@Z @888 NONAME
  ?OnDndDropData@CGXGridCore@@UAEHPAVCGXNoOleDataObjectProxy@@KK@Z @889 NONAME
  ?OnDndQueryAcceptData@CGXGridCore@@UAEHPAVCGXNoOleDataObjectProxy@@@Z @890 NONAME
  ?OnDndCalculateFocusRect@CGXGridCore@@UAEHPAVCGXNoOleDataObjectProxy@@AAK1@Z @891 NONAME
  ?DndDrawMoveRect@CGXGridCore@@UAEXVCPoint@@HH@Z @892 NONAME
  ?DoDragScroll@CGXGridCore@@QAEHVCPoint@@@Z @893 NONAME
  ?IsOverAnotherApplication@CGXGridCore@@QAEHUtagPOINT@@@Z @894 NONAME
  ?SetFloatCellsMode@CGXGridCore@@QAEXGH@Z @895 NONAME
  ?GetFloatCellsMode@CGXGridCore@@QBEGXZ @896 NONAME
  ?DelayFloatCells@CGXGridCore@@QAEXABVCGXRange@@K@Z @897 NONAME
  ?GetFloatCellsPool@CGXGridCore@@IAEPAVCGXSpanCellPool@@XZ @898 NONAME
  ?EvalFloatCells@CGXGridCore@@QAEHABVCGXRange@@HPAV2@H@Z @899 NONAME
  ?CanFloatCell@CGXGridCore@@UAEHPAVCGXControl@@KKABVCGXStyle@@H@Z @900 NONAME
  ?SetFloatedCellsRowCol@CGXGridCore@@IAEHKKKKI@Z @901 NONAME
  ?GetCellRangeRowCol@CGXGridCore@@UAEPAVCGXRange@@KKAAV2@@Z @902 NONAME
  ?GetFloatedCellsRowCol@CGXGridCore@@QAEPAVCGXRange@@KKAAV2@@Z @903 NONAME
  ?MergeFloatedCells@CGXGridCore@@IAEXAAVCGXRange@@@Z @904 NONAME
  ?UpdateFloatedCellsRowCol@CGXGridCore@@IAEXKKKKIH@Z @905 NONAME
  ?SetMergeCellsMode@CGXGridCore@@QAEXGH@Z @906 NONAME
  ?GetMergeCellsMode@CGXGridCore@@QBEGXZ @907 NONAME
  ?DelayMergeCells@CGXGridCore@@QAEXABVCGXRange@@KK@Z @908 NONAME
  ?EvalMergeCells@CGXGridCore@@QAEHABVCGXRange@@HPAV2@H@Z @909 NONAME
  ?CanMergeCell@CGXGridCore@@UAEHPAVCGXControl@@KKABVCGXStyle@@H@Z @910 NONAME
  ?CanMergeCells@CGXGridCore@@UAEHABVCGXStyle@@0@Z @911 NONAME
  ?SetMergedCellsRowCol@CGXGridCore@@IAEHHKKKKI@Z @912 NONAME
  ?GetMergedCellsRowCol@CGXGridCore@@QAEPAVCGXRange@@KKAAV2@H@Z @913 NONAME
  ?MergeMergedCells@CGXGridCore@@IAEXAAVCGXRange@@@Z @914 NONAME
  ?UpdateMergedCellsRowCol@CGXGridCore@@IAEXKKKKIH@Z @915 NONAME
  ?SetCoveredCellsRowCol@CGXGridCore@@UAEHKKKKIW4GXCmdType@@@Z @916 NONAME
  ?GetCoveredCellsRowCol@CGXGridCore@@UAEPAVCGXRange@@KKAAV2@@Z @917 NONAME
  ?MergeCoveredCells@CGXGridCore@@MAEXAAVCGXRange@@@Z @918 NONAME
  ?StoreCoveredCellsRowCol@CGXGridCore@@MAEHKKKKH@Z @919 NONAME
  ?UpdateCoveredCellsRowCol@CGXGridCore@@MAEXKKKKIH@Z @920 NONAME
  ?OnGridBeginPrinting@CGXGridCore@@UAEXPAVCDC@@PAUCPrintInfo@@@Z @921 NONAME
  ?OnGridPrint@CGXGridCore@@UAEXPAVCDC@@PAUCPrintInfo@@@Z @922 NONAME
  ?OnGridEndPrinting@CGXGridCore@@UAEXPAVCDC@@PAUCPrintInfo@@@Z @923 NONAME
  ?ResizeRowHeightsToFit@CGXGridCore@@UAEHVCGXRange@@HI@Z @924 NONAME
  ?ResizeColWidthsToFit@CGXGridCore@@UAEHVCGXRange@@HI@Z @925 NONAME
  ?HideRows@CGXGridCore@@UAEHKKHPAHIW4GXCmdType@@@Z @926 NONAME
  ?IsRowHidden@CGXGridCore@@UAEHK@Z @927 NONAME
  ?StoreHideRow@CGXGridCore@@MAEHKH@Z @928 NONAME
  ?HideCols@CGXGridCore@@UAEHKKHPAHIW4GXCmdType@@@Z @929 NONAME
  ?IsColHidden@CGXGridCore@@UAEHK@Z @930 NONAME
  ?StoreHideCol@CGXGridCore@@MAEHKH@Z @931 NONAME
  ?CopyCells@CGXGridCore@@UAEHVCGXRange@@KKI@Z @932 NONAME
  ?StoreCopyCells@CGXGridCore@@UAEHVCGXRange@@KK@Z @933 NONAME
  ?MoveCells@CGXGridCore@@UAEHVCGXRange@@KKPAVCObject@@IW4GXCmdType@@@Z @934 NONAME
  ?StoreMoveCells@CGXGridCore@@UAEHVCGXRange@@KKAAPAVCObject@@HW4GXCmdType@@@Z @935 NONAME
  ?CopyTextToFile@CGXGridCore@@QAEHAAVCFile@@ABVCGXRange@@@Z @936 NONAME

  ?CopyTextToFile@CGXGridCore@@UAEHAAVCFile@@ABVCGXRangeList@@@Z @940 NONAME

;  ?GetCopyTextRowCol@CGXGridCore@@UAE?AVCString@@KK@Z @941 NONAME
	?GetCopyTextRowCol@CGXGridCore@@UAE?AV?$CStringT@DV?$StrTraitMFC_DLL@DV?$ChTraitsCRT@D@ATL@@@@@ATL@@KK@Z

  ?PasteTextFromBuffer@CGXGridCore@@UAEHPBDKABVCGXRange@@@Z @942 NONAME
;  ?PasteTextRowCol@CGXGridCore@@UAEHKKABVCString@@IPBVCGXStyle@@@Z @943 NONAME
	?PasteTextRowCol@CGXGridCore@@UAEHKKABV?$CStringT@DV?$StrTraitMFC_DLL@DV?$ChTraitsCRT@D@ATL@@@@@ATL@@IPBVCGXStyle@@@Z @943 NONAME

  ?CalcBufferDimension@CGXGridCore@@UAEHPBDKAAK1@Z @944 NONAME
  ?CopyCellsToArchive@CGXGridCore@@QAEHAAVCArchive@@ABVCGXRange@@H@Z @945 NONAME
  ?CopyCellsToArchive@CGXGridCore@@UAEHAAVCArchive@@ABVCGXRangeList@@H@Z @946 NONAME
  ?GetClipboardStyleRowCol@CGXGridCore@@UAEHKKPAVCGXStyle@@H@Z @947 NONAME
  ?PasteCellsFromArchive@CGXGridCore@@UAEHAAVCArchive@@ABVCGXRange@@H@Z @948 NONAME
  ?CanCopy@CGXGridCore@@UAEHXZ @949 NONAME
  ?Copy@CGXGridCore@@UAEHXZ @950 NONAME
  ?CopyRange@CGXGridCore@@QAEHABVCGXRange@@@Z @951 NONAME
  ?CopyRange@CGXGridCore@@UAEHABVCGXRangeList@@@Z @952 NONAME
  ?CopyTextToClipboard@CGXGridCore@@QAEHABVCGXRangeList@@@Z @953 NONAME
  ?CopyCellsToClipboard@CGXGridCore@@QAEHABVCGXRangeList@@H@Z @954 NONAME
  ?CanCut@CGXGridCore@@UAEHXZ @955 NONAME
  ?Cut@CGXGridCore@@UAEHXZ @956 NONAME
  ?CutRange@CGXGridCore@@QAEHABVCGXRange@@H@Z @957 NONAME
  ?CutRange@CGXGridCore@@UAEHABVCGXRangeList@@H@Z @958 NONAME
  ?CanPaste@CGXGridCore@@UAEHXZ @959 NONAME
  ?OnCheckClipboardFormat@CGXGridCore@@UAEHXZ @960 NONAME
  ?Paste@CGXGridCore@@UAEHXZ @961 NONAME
  ?OnPasteDirect@CGXGridCore@@UAEHABVCGXRange@@@Z @962 NONAME
  ?OnPasteFromClipboard@CGXGridCore@@UAEHABVCGXRange@@@Z @963 NONAME
  ?OnPasteDiffRange@CGXGridCore@@UAEHXZ @964 NONAME
  ?CanClear@CGXGridCore@@UAEHXZ @965 NONAME
  ?Clear@CGXGridCore@@UAEHH@Z @966 NONAME
  ?ClearCells@CGXGridCore@@QAEHABVCGXRange@@H@Z @967 NONAME
  ?ClearCells@CGXGridCore@@UAEHABVCGXRangeList@@H@Z @968 NONAME
  ?SetRangeName@CGXGridCore@@UAEHPBDABVCGXRange@@PAVCObject@@IW4GXCmdType@@@Z @969 NONAME
  ?GetRangeName@CGXGridCore@@UAEHPBDAAVCGXRange@@@Z @970 NONAME
  ?DeleteRangeName@CGXGridCore@@UAEHPBDPAVCObject@@W4GXCmdType@@@Z @971 NONAME
;  ?AddTail@CGXRangeList@@QAEPAU__POSITION@@PAVCGXRange@@@Z @973 NONAME

;----------------  .\objs\ogmsasd\gxcorbuf.obj  ----------------

  ?LookupOrCreateFont@CGXGridCore@@QAEPAVCFont@@ABVCGXFont@@@Z @974 NONAME
  ?LookupOrCreateBrush@CGXGridCore@@QAEPAVCBrush@@ABUCGXBrush@@@Z @975 NONAME
  ?LookupOrCreatePen@CGXGridCore@@QAEPAVCPen@@ABUCGXPen@@@Z @976 NONAME
  ?LookupStyleRowCol@CGXGridCore@@UAEABVCGXStyle@@KK@Z @977 NONAME
  ?CreateStyle@CGXGridCore@@UAEPAVCGXStyle@@XZ @978 NONAME
  ?RecycleStyle@CGXGridCore@@UAEXPAVCGXStyle@@@Z @979 NONAME
  ?FreeObjectCache@CGXGridCore@@MAEXXZ @980 NONAME
  ?GetGridDC@CGXGridCore@@QAEPAVCDC@@XZ @981 NONAME
  ?ReleaseGridDC@CGXGridCore@@QAEXXZ @982 NONAME
  ?LoadFont@CGXGridCore@@UAEPAVCFont@@PAVCDC@@ABVCGXStyle@@PBV4@@Z @983 NONAME
  ?LoadFont@CGXGridCore@@QAEPAVCFont@@PAVCDC@@ABVCGXFont@@@Z @984 NONAME
;  ?GetCount@CGXMapByte8ToPtr@@QBEHXZ @989 NONAME
;  ?SetAt@CGXMapByte8ToPtr@@QAEX_JPAX@Z @990 NONAME
;  ?GetHashTableSize@CGXMapByte8ToPtr@@QBEIXZ @992 NONAME
  ?SetColor@CGXBrush@@QAEAAU1@K@Z @1000 NONAME
;  ?GetBrushKey@CGXBrush@@QBE_JXZ @1001 NONAME
;  ?GetPenKey@CGXPen@@QBE_JXZ @1002 NONAME
;  ?SetReadOnly@CGXStyle@@QAEAAV1@H@Z @1007 NONAME
;  ?SetIncludeReadOnly@CGXStyle@@QAEAAV1@H@Z @1008 NONAME
;  ?GetStyleBits@CGXStyle@@QBEKXZ @1013 NONAME
;  ?GridWnd@CGXGridCore@@QAEPAVCWnd@@XZ @1018 NONAME

;----------------  .\objs\ogmsasd\gxcorclp.obj  ----------------

  ?ImplementCutPaste@CGXGridCore@@QAEXXZ @1019 NONAME
;  ??0CGXGridCutPasteImp@@QAE@XZ @1020 NONAME

;  ??0CGXAbstractGridCutPasteImp@@QAE@XZ @1022 NONAME

  ?CanCopy@CGXGridCutPasteImp@@UAEHPAVCGXGridCore@@@Z @1024 NONAME
  ?Copy@CGXGridCutPasteImp@@UAEHPAVCGXGridCore@@@Z @1025 NONAME
  ?CopyRange@CGXGridCutPasteImp@@UAEHPAVCGXGridCore@@ABVCGXRangeList@@@Z @1026 NONAME
;  ?cfDirectCopy@@YGIXZ @1027 NONAME 11.12.2017
  ?CopyTextToClipboard@CGXGridCutPasteImp@@UAEHPAVCGXGridCore@@ABVCGXRangeList@@@Z @1029 NONAME
  ?CopyCellsToClipboard@CGXGridCutPasteImp@@UAEHPAVCGXGridCore@@ABVCGXRangeList@@H@Z @1030 NONAME
  ?CanCut@CGXGridCutPasteImp@@UAEHPAVCGXGridCore@@@Z @1031 NONAME
  ?Cut@CGXGridCutPasteImp@@UAEHPAVCGXGridCore@@@Z @1032 NONAME
  ?CutRange@CGXGridCutPasteImp@@UAEHPAVCGXGridCore@@ABVCGXRangeList@@H@Z @1033 NONAME
  ?CanPaste@CGXGridCutPasteImp@@UAEHPAVCGXGridCore@@@Z @1034 NONAME
  ?OnCheckClipboardFormat@CGXGridCutPasteImp@@UAEHPAVCGXGridCore@@@Z @1035 NONAME
  ?Paste@CGXGridCutPasteImp@@UAEHPAVCGXGridCore@@@Z @1036 NONAME
  ?OnPasteDirect@CGXGridCutPasteImp@@UAEHPAVCGXGridCore@@ABVCGXRange@@@Z @1040 NONAME
  ?OnPasteFromClipboard@CGXGridCutPasteImp@@UAEHPAVCGXGridCore@@ABVCGXRange@@@Z @1043 NONAME
  ?OnPasteDiffRange@CGXGridCutPasteImp@@UAEHPAVCGXGridCore@@@Z @1044 NONAME
;  ?LockUpdate@CGXGridCore@@QAEHH@Z @1045 NONAME
;  ?IsLockUpdate@CGXGridCore@@QAEHXZ @1046 NONAME
;  ?OpenClipboard@CGXGridCore@@IAEHXZ @1048 NONAME
;  ?GetWidth@CGXRange@@QBEKXZ @1050 NONAME
;  ?GetHeight@CGXRange@@QBEKXZ @1051 NONAME
;  ?GetHead@CGXRangeList@@QAEAAPAVCGXRange@@XZ @1052 NONAME
;  ?GetNext@CGXRangeList@@QAEAAPAVCGXRange@@AAPAU__POSITION@@@Z @1053 NONAME
;  ?IsLockReadOnly@CGXGridParam@@QAEHXZ @1054 NONAME

;----------------  .\objs\ogmsasd\gxcorcur.obj  ----------------

  ?SetCurrentCell@CGXGridCore@@UAEHKKI@Z @1057 NONAME
  ?TransferCurrentCell@CGXGridCore@@UAEHHIH@Z @1058 NONAME
  ?CanSelectCurrentCell@CGXGridCore@@MAEHHKKKK@Z @1059 NONAME
  ?GetCurrentCell@CGXGridCore@@QAEHPAK0H@Z @1060 NONAME
  ?StoreCurrentCell@CGXGridCore@@IAEXHKK@Z @1061 NONAME
  ?IsCurrentCell@CGXGridCore@@QAEHKKH@Z @1062 NONAME
  ?IsActiveCurrentCell@CGXGridCore@@QAEHXZ @1063 NONAME
  ?GetCurrentCellControl@CGXGridCore@@QAEPAVCGXControl@@XZ @1064 NONAME
  ?GetControl@CGXGridCore@@UAEPAVCGXControl@@KK@Z @1065 NONAME
  ?HideCurrentCell@CGXGridCore@@UAEXXZ @1066 NONAME
  ?ResetCurrentCell@CGXGridCore@@UAEXH@Z @1067 NONAME
  ?MoveCurrentCellEx@CGXGridCore@@MAEHHI@Z @1068 NONAME
  ?FindNextCell@CGXGridCore@@UAEHHAAK0@Z @1069 NONAME
  ?MoveCurrentCell@CGXGridCore@@UAEHHIH@Z @1070 NONAME
  ?SetWarningText@CGXGridCore@@UAEXPBD@Z @1071 NONAME
  ?DisplayWarningText@CGXGridCore@@UAEXXZ @1072 NONAME
  ?OnValidateCell@CGXGridCore@@MAEHKK@Z @1073 NONAME
  ?OnStartEditing@CGXGridCore@@MAEHKK@Z @1074 NONAME
  ?OnModifyCell@CGXGridCore@@MAEXKK@Z @1075 NONAME
  ?OnCancelEditing@CGXGridCore@@MAEHKK@Z @1076 NONAME
  ?OnCanceledEditing@CGXGridCore@@MAEXKK@Z @1077 NONAME
  ?OnEndEditing@CGXGridCore@@MAEHKK@Z @1078 NONAME
  ?OnLeftCell@CGXGridCore@@MAEHKKKK@Z @1079 NONAME
  ?OnDeleteCell@CGXGridCore@@MAEHKK@Z @1080 NONAME
  ?OnInitCurrentCell@CGXGridCore@@MAEXKK@Z @1081 NONAME
  ?OnMovedCurrentCell@CGXGridCore@@MAEXKK@Z @1082 NONAME
  ?OnLButtonClickedRowCol@CGXGridCore@@MAEHKKIVCPoint@@@Z @1083 NONAME
  ?OnMButtonClickedRowCol@CGXGridCore@@MAEHKKIVCPoint@@@Z @1084 NONAME
  ?OnRButtonClickedRowCol@CGXGridCore@@MAEHKKIVCPoint@@@Z @1085 NONAME
  ?OnLButtonDblClkRowCol@CGXGridCore@@MAEHKKIVCPoint@@@Z @1086 NONAME
  ?OnMButtonDblClkRowCol@CGXGridCore@@MAEHKKIVCPoint@@@Z @1087 NONAME
  ?OnRButtonDblClkRowCol@CGXGridCore@@MAEHKKIVCPoint@@@Z @1088 NONAME
  ?ProcessKeys@CGXGridCore@@UAEHPAVCWnd@@IIII@Z @1089 NONAME
  ?OnGridKeyDown@CGXGridCore@@MAEHIII@Z @1090 NONAME
  ?OnGridKeyUp@CGXGridCore@@MAEHIII@Z @1091 NONAME
  ?OnGridChar@CGXGridCore@@MAEHIII@Z @1092 NONAME
  ?OnGridDeadChar@CGXGridCore@@MAEHIII@Z @1093 NONAME
;  ?OnGridDoubleByteChar@CGXGridCore@@MAEHABVCString@@II@Z @1094 NONAME
	?OnGridDoubleByteChar@CGXGridCore@@MAEHABV?$CStringT@DV?$StrTraitMFC_DLL@DV?$ChTraitsCRT@D@ATL@@@@@ATL@@II@Z @1094 NONAME
	
  ?OnGridSysKeyDown@CGXGridCore@@MAEHIII@Z @1095 NONAME
  ?OnGridSysKeyUp@CGXGridCore@@MAEHIII@Z @1096 NONAME
  ?OnGridSysChar@CGXGridCore@@MAEHIII@Z @1097 NONAME
  ?OnGridSysDeadChar@CGXGridCore@@MAEHIII@Z @1098 NONAME
  ?OnScrollBecauseOfEdit@CGXGridCore@@MAEHHK@Z @1099 NONAME
  ?OnLButtonHitRowCol@CGXGridCore@@MAEHKKKKVCPoint@@IG@Z @1100 NONAME
  ?OnMButtonHitRowCol@CGXGridCore@@MAEHKKKKVCPoint@@IG@Z @1101 NONAME
  ?OnRButtonHitRowCol@CGXGridCore@@MAEHKKKKVCPoint@@IG@Z @1102 NONAME
  ?OnClickedButtonRowCol@CGXGridCore@@MAEXKK@Z @1103 NONAME
;  ?GetCurrentCell@CGXGridCore@@QAEHAAK0H@Z @1113 NONAME
;  ?RedrawRowCol@CGXGridCore@@QAEXKKIH@Z @1114 NONAME
;  ?CalcRectFromRowCol@CGXGridCore@@QAE?AVCRect@@KK@Z @1115 NONAME
;  ?UpdateWindow@CGXGridCore@@IAEXXZ @1118 NONAME
;  ?GetCapture@CGXGridCore@@IAEPAVCWnd@@XZ @1119 NONAME
;  ?GetExcelLikeCurrentCell@CGXGridParam@@QAEHXZ @1121 NONAME
;  ?GetEnterKeyAction@CGXGridParam@@QAEGXZ @1122 NONAME
;  ?IsScrollLikeExcel@CGXGridParam@@QAEHXZ @1124 NONAME
;  ?GetHideCurrentCell@CGXGridParam@@QAEGXZ @1125 NONAME

;----------------  .\objs\ogmsasd\gxcordim.obj  ----------------

  ?OnTestGridDimension@CGXGridCore@@UAEXKK@Z @1128 NONAME
  ?SetRowCount@CGXGridCore@@UAEHKI@Z @1129 NONAME
  ?SetColCount@CGXGridCore@@UAEHKI@Z @1130 NONAME
  ?GetRowCount@CGXGridCore@@UAEKXZ @1131 NONAME
  ?GetColCount@CGXGridCore@@UAEKXZ @1132 NONAME
  ?StoreRowCount@CGXGridCore@@MAEHK@Z @1133 NONAME
  ?StoreColCount@CGXGridCore@@MAEHK@Z @1134 NONAME
  ?UpdateChangedRowCount@CGXGridCore@@MAEXKIH@Z @1135 NONAME
  ?UpdateChangedColCount@CGXGridCore@@MAEXKIH@Z @1136 NONAME
  ?SetFrozenRows@CGXGridCore@@UAEHKKIW4GXCmdType@@@Z @1137 NONAME
  ?SetFrozenCols@CGXGridCore@@UAEHKKIW4GXCmdType@@@Z @1138 NONAME
  ?StoreFrozenRows@CGXGridCore@@MAEHKK@Z @1139 NONAME
  ?StoreFrozenCols@CGXGridCore@@MAEHKK@Z @1140 NONAME
  ?GetFrozenRows@CGXGridCore@@UAEKXZ @1141 NONAME
  ?GetFrozenCols@CGXGridCore@@UAEKXZ @1142 NONAME
  ?GetHeaderRows@CGXGridCore@@UAEKXZ @1143 NONAME
  ?GetHeaderCols@CGXGridCore@@UAEKXZ @1144 NONAME
  ?IsFrozenRow@CGXGridCore@@QAEHK@Z @1145 NONAME
  ?IsFrozenCol@CGXGridCore@@QAEHK@Z @1146 NONAME
  ?UpdateFrozenCols@CGXGridCore@@MAEXKKIH@Z @1147 NONAME
  ?UpdateFrozenRows@CGXGridCore@@MAEXKKIH@Z @1148 NONAME
  ?SetTopRow@CGXGridCore@@UAEXKIH@Z @1149 NONAME
  ?SetLeftCol@CGXGridCore@@UAEXKIH@Z @1150 NONAME
  ?SetTopLeftRowCol@CGXGridCore@@QAEXKKI@Z @1151 NONAME
  ?GetClientRow@CGXGridCore@@QAEKK@Z @1152 NONAME
  ?GetClientCol@CGXGridCore@@QAEKK@Z @1153 NONAME
  ?GetRow@CGXGridCore@@QAEKK@Z @1154 NONAME
  ?GetCol@CGXGridCore@@QAEKK@Z @1155 NONAME
  ?StoreInsertRows@CGXGridCore@@MAEHKKH@Z @1156 NONAME
  ?UpdateInsertRows@CGXGridCore@@MAEXKKIH@Z @1157 NONAME
  ?StoreInsertCols@CGXGridCore@@MAEHKKH@Z @1158 NONAME
  ?UpdateInsertCols@CGXGridCore@@MAEXKKIH@Z @1159 NONAME
  ?InsertRows@CGXGridCore@@UAEHKKPAHPAVCObArray@@1KIW4GXCmdType@@@Z @1160 NONAME
  ?InsertCols@CGXGridCore@@UAEHKKPAHPAVCObArray@@1KIW4GXCmdType@@@Z @1161 NONAME
  ?StoreRemoveRows@CGXGridCore@@MAEHKKH@Z @1162 NONAME
  ?UpdateRemoveRows@CGXGridCore@@MAEXKKPAHIH@Z @1163 NONAME
  ?StoreRemoveCols@CGXGridCore@@MAEHKKH@Z @1164 NONAME
  ?UpdateRemoveCols@CGXGridCore@@MAEXKKPAHIH@Z @1165 NONAME
  ?RemoveRows@CGXGridCore@@UAEHKKIW4GXCmdType@@@Z @1166 NONAME
  ?RemoveCols@CGXGridCore@@UAEHKKIW4GXCmdType@@@Z @1167 NONAME
  ?StoreMoveRows@CGXGridCore@@MAEHKKKH@Z @1168 NONAME
  ?UpdateMoveRows@CGXGridCore@@MAEXKKKIH@Z @1169 NONAME
  ?StoreMoveCols@CGXGridCore@@MAEHKKKH@Z @1170 NONAME
  ?UpdateMoveCols@CGXGridCore@@MAEXKKKIH@Z @1171 NONAME
  ?MoveRows@CGXGridCore@@UAEHKKKIW4GXCmdType@@@Z @1172 NONAME
  ?MoveCols@CGXGridCore@@UAEHKKKIW4GXCmdType@@@Z @1173 NONAME
  ?OnSelDragStart@CGXGridCore@@MAEHKK@Z @1174 NONAME
  ?OnSelDragRowsStart@CGXGridCore@@MAEHKK@Z @1175 NONAME
  ?OnSelDragColsStart@CGXGridCore@@MAEHKK@Z @1176 NONAME
  ?OnSelDragMove@CGXGridCore@@MAEHKKKK@Z @1177 NONAME
  ?OnSelDragRowsMove@CGXGridCore@@MAEHKKK@Z @1178 NONAME
  ?OnSelDragColsMove@CGXGridCore@@MAEHKKK@Z @1179 NONAME
  ?OnSelDragDrop@CGXGridCore@@MAEHKKKK@Z @1180 NONAME
  ?OnSelDragRowsDrop@CGXGridCore@@MAEHKKK@Z @1181 NONAME
  ?OnSelDragColsDrop@CGXGridCore@@MAEHKKK@Z @1182 NONAME
  ?OnSelDragCancel@CGXGridCore@@MAEXXZ @1183 NONAME
  ?CanFreezeCols@CGXGridCore@@UAEHXZ @1184 NONAME
  ?CanUnfreezeCols@CGXGridCore@@UAEHXZ @1185 NONAME
  ?FreezeCols@CGXGridCore@@UAEXXZ @1186 NONAME
  ?UnfreezeCols@CGXGridCore@@UAEXXZ @1187 NONAME
  ?CanFreezeRows@CGXGridCore@@UAEHXZ @1188 NONAME
  ?CanUnfreezeRows@CGXGridCore@@UAEHXZ @1189 NONAME
  ?FreezeRows@CGXGridCore@@UAEXXZ @1190 NONAME
  ?UnfreezeRows@CGXGridCore@@UAEXXZ @1191 NONAME
;  ?InvalidateRect@CGXGridCore@@IAEXPBUtagRECT@@H@Z @1198 NONAME
;  ?GetTail@CGXRangeList@@QAEAAPAVCGXRange@@XZ @1200 NONAME
  ?GetCoveredCellsList@CGXGridParam@@QAEPAVCGXRangeList@@XZ @1203 NONAME

;----------------  .\objs\ogmsasd\gxcordra.obj  ----------------

  ?UpdateAllViews@CGXGridCore@@UAEXPAVCWnd@@JPAVCObject@@@Z @1204 NONAME
  ?OnGridUpdate@CGXGridCore@@MAEXPAVCView@@JPAVCObject@@@Z @1205 NONAME
  ?RedrawRowCol@CGXGridCore@@QAEXABVCGXRange@@IH@Z @1206 NONAME
  ?RedrawRowCol@CGXGridCore@@UAEXKKKKIH@Z @1207 NONAME
  ?Redraw@CGXGridCore@@UAEXIH@Z @1208 NONAME
  ?SubtractBorders@CGXGridCore@@UAE?AVCRect@@ABV2@ABVCGXStyle@@H@Z @1209 NONAME
  ?AddBorders@CGXGridCore@@UAE?AVCSize@@V2@ABVCGXStyle@@@Z @1210 NONAME
  ?SetDrawingTechnique@CGXGridCore@@QAE?AW4GXDrawingTechnique@@W42@@Z @1211 NONAME
  ?OnGridDraw@CGXGridCore@@MAEXPAVCDC@@@Z @1212 NONAME
  ?DrawDirectToDC@CGXGridCore@@IAEXPAVCDC@@@Z @1213 NONAME
  ?DrawUsingMemDC@CGXGridCore@@IAEXPAVCDC@@@Z @1216 NONAME
  ?DrawGridLine@CGXGridCore@@IAEXPAVCDC@@HKI@Z @1217 NONAME
  ?DrawGridLine@CGXGridCore@@MAEXPAVCDC@@HHHHHKI@Z @1218 NONAME
  ?CalcGridLineRect@CGXGridCore@@QAE?AVCRect@@HK@Z @1219 NONAME
  ??0DrawStruct@CGXGridCore@@QAE@XZ @1220 NONAME
  ??1DrawStruct@CGXGridCore@@QAE@XZ @1221 NONAME
  ?OnDrawTopLeftBottomRight@CGXGridCore@@MAEXKKKKPAVCDC@@@Z @1222 NONAME
  ?OnDrawTLBR_EvalFloatMergeCell@CGXGridCore@@IAEXAAUDrawStruct@1@@Z @1223 NONAME
  ?OnDrawTLBR_LoadCell@CGXGridCore@@IAEXAAUDrawStruct@1@II@Z @1224 NONAME
  ?OnDrawTLBR_DrawBackground@CGXGridCore@@IAEXAAUDrawStruct@1@I@Z @1225 NONAME
  ?OnDrawTLBR_DrawCell@CGXGridCore@@IAEXAAUDrawStruct@1@II@Z @1226 NONAME
  ?OnDrawTLBR_DrawVertBorders@CGXGridCore@@IAEXAAUDrawStruct@1@I@Z @1227 NONAME
  ?OnDrawTLBR_DrawHorzBorders@CGXGridCore@@IAEXAAUDrawStruct@1@I@Z @1228 NONAME
  ?OnDrawTLBR_InvertCells@CGXGridCore@@IAEXAAUDrawStruct@1@I@Z @1229 NONAME
  ?OnDrawTLBR_DrawBackground@CGXGridCore@@IAEXAAUDrawStruct@1@@Z @1230 NONAME
  ?OnDrawTLBR_InvertCells@CGXGridCore@@IAEXAAUDrawStruct@1@@Z @1231 NONAME
  ?DrawInvertCell@CGXGridCore@@MAEXPAVCDC@@KKVCRect@@@Z @1232 NONAME
  ?OnDrawBorders@CGXGridCore@@IAEXPAVCDC@@VCRect@@ABVCGXStyle@@@Z @1233 NONAME
  ?DrawBorder@CGXGridCore@@QAEXABUCGXPen@@ABVCRect@@W4GXBorderType@@PAVCDC@@PBUCGXBrush@@@Z @1234 NONAME
  ?DrawBrushRect@CGXGridCore@@QAEXPAVCDC@@ABVCRect@@ABUCGXBrush@@@Z @1235 NONAME
  ?OnDrawItem@CGXGridCore@@MAEXPAVCDC@@KKABVCRect@@ABVCGXStyle@@@Z @1236 NONAME
  ?MarkEdit@CGXGridCore@@MAEXKKII@Z @1237 NONAME
  ?OnAdjustPrintRectangle@CGXGridCore@@UAEXPAVCDC@@PAUCPrintInfo@@@Z @1238 NONAME
  ?OnPrintHeaderAndFooter@CGXGridCore@@UAEXPAVCDC@@PAUCPrintInfo@@@Z @1239 NONAME
  ?CalcClientRowColFromPt@CGXGridCore@@IAEHAAVCPoint@@PAK1PAVCRect@@@Z @1240 NONAME
  ?CalcRectFromClientRowCol@CGXGridCore@@IAE?AVCRect@@KK@Z @1241 NONAME
  ?CalcNextRectFromClientRowCol@CGXGridCore@@IAE?AVCRect@@KK@Z @1242 NONAME
  ?CalcValidClientRowColFromPt@CGXGridCore@@IAEXAAVCPoint@@PAK1@Z @1243 NONAME
  ?GetUpdateFlag@CGXGridCore@@UAEHKK@Z @1244 NONAME
  ?SetUpdateFlag@CGXGridCore@@UAEXKKH@Z @1245 NONAME
;  ?RefreshViews@CGXGridCore@@UAEHHPAVCString@@H@Z @1246 NONAME
	?RefreshViews@CGXGridCore@@UAEHHPAV?$CStringT@DV?$StrTraitMFC_DLL@DV?$ChTraitsCRT@D@ATL@@@@@ATL@@H@Z @1246 NONAME
  ?AddRecalcRange@CGXGridCore@@UAEXABVCGXRange@@@Z @1247 NONAME
  ?Recalc@CGXGridCore@@UAEXH@Z @1248 NONAME
  ?ResetError@CGXGridCore@@UAEXXZ @1249 NONAME
;  ?GetError@CGXGridCore@@UAEHAAVCString@@@Z @1250 NONAME
	?GetError@CGXGridCore@@UAEHAAV?$CStringT@DV?$StrTraitMFC_DLL@DV?$ChTraitsCRT@D@ATL@@@@@ATL@@@Z @1250 NONAME
	
  ?EvalVisibleFloatMergeCells@CGXGridCore@@UAEHABVCGXRange@@KKKKKKHPAV2@H@Z @1251 NONAME
;  ?GetStyle@CGXBrush@@QBEIXZ @1252 NONAME
  ?GetBkColor@CGXBrush@@QBEKXZ @1255 NONAME
  ?SetBkColor@CGXBrush@@QAEAAU1@K@Z @1256 NONAME
;  ??4CGXBrush@@QAEAAU0@ABU0@@Z @1257 NONAME
;  ??8CGXBrush@@QBEHABU0@@Z @1258 NONAME
;  ??9CGXBrush@@QBEHABU0@@Z @1259 NONAME
;  ??0CGXPen@@QAE@ABU0@@Z @1260 NONAME
;  ??8CGXPen@@QBEHABU0@@Z @1261 NONAME
;  ?SetStyle@CGXPen@@QAEAAU1@I@Z @1265 NONAME
  ?GetWidth@CGXPen@@QBEHXZ @1266 NONAME
;  ?SetWidth@CGXPen@@QAEAAU1@H@Z @1267 NONAME
  ?GetColor@CGXPen@@QBEKXZ @1268 NONAME
  ?SetColor@CGXPen@@QAEAAU1@K@Z @1269 NONAME
;  ?GetGridDoc@CGXGridCore@@QAEPAVCDocument@@XZ @1281 NONAME
;  ?Invalidate@CGXGridCore@@IAEXH@Z @1290 NONAME
;  ?IsTable@CGXRange@@QBEHXZ @1293 NONAME
;  ?IsRows@CGXRange@@QBEHXZ @1294 NONAME
;  ?IsCols@CGXRange@@QBEHXZ @1295 NONAME
;  ?GetMargins@CGXProperties@@QAEXAAH000@Z @1302 NONAME
;  ?GetNewGridLineMode@CGXGridParam@@QAEHXZ @1304 NONAME
;  ?GetGridLineStyle@CGXGridParam@@QBEIXZ @1305 NONAME
;  ?GetDrawOrder@CGXGridParam@@QAEGXZ @1306 NONAME
  ?GetData@CGXGridParam@@QAEPAVCGXData@@XZ @1310 NONAME

;----------------  .\objs\ogmsasd\GXCORE.obj  ----------------

  ??0GX_CURSOR_STATE@@QAE@XZ @1312 NONAME
  ??0CGXGridCore@@QAE@PAVCWnd@@PAVCDocument@@H@Z @1313 NONAME
;  ??0FloatCellsData@CGXGridCore@@QAE@XZ @1316 NONAME
  ??1FloatCellsData@CGXGridCore@@QAE@XZ @1317 NONAME
;  ??0MergeCellsData@CGXGridCore@@QAE@XZ @1318 NONAME
  ??1MergeCellsData@CGXGridCore@@QAE@XZ @1319 NONAME
  ??1CGXGridCore@@UAE@XZ @1324 NONAME
  ?ResetGrid@CGXGridCore@@IAEXXZ @1325 NONAME
  ?OnGridInitialUpdate@CGXGridCore@@MAEXXZ @1326 NONAME
  ?SetParam@CGXGridCore@@QAEXPAVCGXGridParam@@H@Z @1327 NONAME
  ?GetViewID@CGXGridCore@@QAEHXZ @1328 NONAME
  ?EnableHints@CGXGridCore@@QAEXH@Z @1329 NONAME
  ?SetGridRect@CGXGridCore@@QAEXHPAUtagRECT@@@Z @1330 NONAME
  ?GetGridRect@CGXGridCore@@QAE?AVCRect@@XZ @1331 NONAME
  ?SetPrinting@CGXGridCore@@UAEXHH@Z @1332 NONAME
  ?GetSharedScrollbarParentWnd@CGXGridCore@@QBEPAVCWnd@@XZ @1333 NONAME
  ?SetModifiedFlag@CGXGridCore@@UAEXH@Z @1334 NONAME
  ?AssertValid@CGXGridCore@@MBEXXZ @1335 NONAME
;  ?Dump@CGXGridCore@@MBEXAAVCDumpContext@@@Z @1336 NONAME
  ?IsTracking@CGXGridCore@@QAEHPAHPAK@Z @1337 NONAME
  ?IsDragSelection@CGXGridCore@@QAEHPAH@Z @1338 NONAME
  ?IsSelectingCells@CGXGridCore@@QAEHXZ @1339 NONAME
  ?SetReadOnly@CGXGridCore@@UAEXH@Z @1340 NONAME
  ?IsReadOnly@CGXGridCore@@UAEHXZ @1341 NONAME
  ?StoreReadOnly@CGXGridCore@@MAEHH@Z @1342 NONAME
  ?UpdateReadOnly@CGXGridCore@@MAEXHH@Z @1343 NONAME
  ?AutoDeletePtr@CGXGridCore@@QAEXPAX@Z @1344 NONAME
  ??0CGXPen@@QAE@XZ @1347 NONAME
;  ?GetClientRect@CGXGridCore@@IAEXPAUtagRECT@@@Z @1354 NONAME
;  ?SetPrinting@CGXProperties@@QAEXH@Z @1356 NONAME
;  ?GetLastZoom@CGXProperties@@QBEHXZ @1357 NONAME
;  ?IsSyncCurrentCell@CGXGridParam@@QAEHXZ @1358 NONAME
  ?GetStylesMap@CGXGridParam@@QAEPAVCGXStylesMap@@XZ @1362 NONAME

;----------------  .\objs\ogmsasd\gxcoret.obj  ----------------

  ?GetTabWnd@CGXGridCore@@QBEPAVCGXTabWnd@@XZ @1364 NONAME
;  ?GetTabName@CGXGridCore@@QAE?AVCString@@XZ @1365 NONAME
;  ?SetTabName@CGXGridCore@@QAEXVCString@@@Z @1366 NONAME

;----------------  .\objs\ogmsasd\gxcorfit.obj  ----------------

  ?ImplementResizeToFit@CGXGridCore@@QAEXXZ @1367 NONAME
;  ??0CGXGridResizeToFitImp@@QAE@XZ @1368 NONAME

;  ??0CGXAbstractGridResizeToFitImp@@QAE@XZ @1370 NONAME

  ?ResizeRowHeightsToFit@CGXGridResizeToFitImp@@UAEHPAVCGXGridCore@@AAVCGXRange@@HI@Z @1372 NONAME
  ?ResizeColWidthsToFit@CGXGridResizeToFitImp@@UAEHPAVCGXGridCore@@AAVCGXRange@@HI@Z @1374 NONAME

;----------------  .\objs\ogmsasd\gxcorfr.obj  ----------------

  ??0GX_FR_STATE@@QAE@XZ @1379 NONAME
  ??1GX_FR_STATE@@QAE@XZ @1380 NONAME
  ?PrepareFindReplace@GX_FR_STATE@@QAEXXZ @1381 NONAME
;  ?GetSelectedText@CGXGridCore@@QAEXAAVCString@@@Z @1382 NONAME
  ?OnShowFindReplaceDialog@CGXGridCore@@UAEXH@Z @1383 NONAME
  ?OnFindNext@CGXGridCore@@UAEXPBDHH@Z @1384 NONAME
  ?FindTextA@CGXGridCore@@QAEHH@Z @1385 NONAME
  ?OnReplaceSel@CGXGridCore@@UAEXPBDHH0@Z @1386 NONAME
  ?OnReplaceAll@CGXGridCore@@UAEXPBD0H@Z @1387 NONAME
  ?OnFindReplace@CGXGridCore@@MAEXPAVCFindReplaceDialog@@@Z @1388 NONAME
  ?FindTextA@CGXGridCore@@QAEHAAK0H@Z @1389 NONAME
  ?OnTextNotFound@CGXGridCore@@UAEXPBD@Z @1390 NONAME

;----------------  .\objs\ogmsasd\gxcorfri.obj  ----------------

  ?ImplementFindReplace@CGXGridCore@@QAEXXZ @1392 NONAME
;  ??0CGXGridFindReplaceImp@@QAE@XZ @1393 NONAME

;  ??0CGXAbstractGridFindReplaceImp@@QAE@XZ @1395 NONAME
;  ?GXShowFindReplaceDialog@@YGXHABVCString@@PAVCWnd@@@Z @1397 NONAME

  ?OnShowFindReplaceDialog@CGXGridFindReplaceImp@@UAEXPAVCGXGridCore@@H@Z @1398 NONAME
  ?OnFindNext@CGXGridFindReplaceImp@@UAEXPAVCGXGridCore@@PBDHH@Z @1399 NONAME
  ?FindTextA@CGXGridFindReplaceImp@@UAEHPAVCGXGridCore@@H@Z @1400 NONAME
  ?OnReplaceSel@CGXGridFindReplaceImp@@UAEXPAVCGXGridCore@@PBDHH1@Z @1401 NONAME
  ?OnReplaceAll@CGXGridFindReplaceImp@@UAEXPAVCGXGridCore@@PBD1H@Z @1402 NONAME
  ?OnFindReplace@CGXGridFindReplaceImp@@UAEXPAVCGXGridCore@@PAVCFindReplaceDialog@@@Z @1403 NONAME
  ?FindTextA@CGXGridFindReplaceImp@@UAEHPAVCGXGridCore@@AAK1H@Z @1404 NONAME
  ?FindTextA@CGXGridFindReplaceImp@@UAEHPAVCGXControl@@ABUGX_FR_STATE@@KKHH@Z @1405 NONAME
  ?ReplaceAll@CGXGridFindReplaceImp@@UAEHPAVCGXControl@@ABUGX_FR_STATE@@KK@Z @1407 NONAME
;  ?SetPercentDone@CGXLongOperation@@SGXH@Z @1423 NONAME 11.12.2017
;  ?NeedMessages@CGXLongOperation@@QAEHXZ @1424 NONAME 06.03.2019

;----------------  .\objs\ogmsasd\gxcormsg.obj  ----------------

  ?CanChangeTab@CGXGridCore@@UAEHXZ @1425 NONAME
  ?OnTabChanged@CGXGridCore@@UAEXH@Z @1426 NONAME
  ?OnInfoWndMoveRecord@CGXGridCore@@UAEXHJ@Z @1427 NONAME
  ?UpdateRecordInfoWnd@CGXGridCore@@UAEXXZ @1428 NONAME
  ?CanActivateGrid@CGXGridCore@@UAEHH@Z @1429 NONAME
  ?DoGetScrollBarCtrl@CGXGridCore@@MBEPAVCScrollBar@@H@Z @1430 NONAME
  ?OnGridPrepareDC@CGXGridCore@@UAEXPAVCDC@@PAUCPrintInfo@@@Z @1431 NONAME
  ?OnActivateGrid@CGXGridCore@@MAEHH@Z @1432 NONAME
  ?DoNotifyDestroy@CGXGridCore@@MAEHXZ @1433 NONAME
  ?DoVScroll@CGXGridCore@@MAEHIIPAVCScrollBar@@@Z @1434 NONAME
  ?DoHScroll@CGXGridCore@@MAEHIIPAVCScrollBar@@@Z @1435 NONAME
  ?DoSetCursor@CGXGridCore@@MAEHPAVCWnd@@II@Z @1436 NONAME
  ?DoMouseMove@CGXGridCore@@MAEHIVCPoint@@@Z @1437 NONAME
  ?OnMouseMoveOver@CGXGridCore@@MAEHKKIVCPoint@@@Z @1440 NONAME
  ?DoLButtonDown@CGXGridCore@@MAEHIVCPoint@@@Z @1441 NONAME
  ?DoLButtonUp@CGXGridCore@@MAEHIVCPoint@@@Z @1442 NONAME
  ?DoMButtonDown@CGXGridCore@@MAEHIVCPoint@@@Z @1443 NONAME
  ?DoMButtonUp@CGXGridCore@@MAEHIVCPoint@@@Z @1444 NONAME
  ?DoRButtonDown@CGXGridCore@@MAEHIVCPoint@@@Z @1445 NONAME
  ?DoRButtonUp@CGXGridCore@@MAEHIVCPoint@@@Z @1446 NONAME
  ?DoLButtonDblClk@CGXGridCore@@MAEHIVCPoint@@@Z @1447 NONAME
  ?DoMButtonDblClk@CGXGridCore@@MAEHIVCPoint@@@Z @1448 NONAME
  ?DoRButtonDblClk@CGXGridCore@@MAEHIVCPoint@@@Z @1449 NONAME
  ?LockResize@CGXGridCore@@QAEXH@Z @1450 NONAME
  ?DoSize@CGXGridCore@@MAEHIHH@Z @1451 NONAME
  ?DoShowWindow@CGXGridCore@@MAEHHI@Z @1452 NONAME
  ?DoCtlColor@CGXGridCore@@MAEPAUHBRUSH__@@PAVCDC@@PAVCWnd@@I@Z @1453 NONAME
  ?DoCancelMode@CGXGridCore@@MAEHXZ @1454 NONAME
  ?DoCommand@CGXGridCore@@MAEHIJ@Z @1455 NONAME
  ?OnGridWinIniChange@CGXGridCore@@MAEXPBD@Z @1456 NONAME
  ?OnGridSysColorChange@CGXGridCore@@MAEXXZ @1457 NONAME
  ?DoGetDlgCode@CGXGridCore@@MAEII@Z @1458 NONAME
  ?DoMouseActivate@CGXGridCore@@MAEHPAVCWnd@@IIAAH@Z @1459 NONAME
  ?OnGridSetFocus@CGXGridCore@@MAEXPAVCWnd@@@Z @1460 NONAME
  ?OnGridKillFocus@CGXGridCore@@MAEXPAVCWnd@@@Z @1461 NONAME
  ?OnGridTimer@CGXGridCore@@MAEXI@Z @1462 NONAME
  ?OnGridPreTranslateMessage@CGXGridCore@@MAEHPAUtagMSG@@@Z @1463 NONAME
  ?OnGridWindowProc@CGXGridCore@@MAEHIIJAAJ@Z @1464 NONAME
  ?AddPlugin@CGXGridCore@@QAEXPAVCGXPluginComponent@@@Z @1465 NONAME
;  ?SetCapture@CGXGridCore@@IAEPAVCWnd@@XZ @1481 NONAME
;  ?IsDrawWYSIWYG@CGXGridParam@@QAEHXZ @1484 NONAME
;  ?IsEatFirstMouseClick@CGXGridParam@@QAEHXZ @1485 NONAME
;  ?GetPrintDevice@CGXGridParam@@QAEPAVCGXPrintDevice@@XZ @1487 NONAME

;----------------  .\objs\ogmsasd\gxcorprn.obj  ----------------

  ?ImplementPrinting@CGXGridCore@@QAEXXZ @1488 NONAME
;  ??0CGXGridPrintImp@@QAE@XZ @1489 NONAME

;  ??0CGXAbstractGridPrintImp@@QAE@XZ @1491 NONAME

  ?OnGridBeginPrinting@CGXGridPrintImp@@UAEXPAVCGXGridCore@@PAVCDC@@PAUCPrintInfo@@@Z @1493 NONAME
  ?OnGridPrint@CGXGridPrintImp@@UAEXPAVCGXGridCore@@PAVCDC@@PAUCPrintInfo@@@Z @1495 NONAME
  ?OnGridEndPrinting@CGXGridPrintImp@@UAEXPAVCGXGridCore@@PAVCDC@@PAUCPrintInfo@@@Z @1497 NONAME
  ?OnPrintHeaderAndFooter@CGXGridPrintImp@@UAEXPAVCGXProperties@@PAVCDC@@PAUCPrintInfo@@PAVCDocument@@PAVCGXGridParam@@@Z @1498 NONAME
  ?CalculateHeight@CGXGridPrintImp@@UAEHPAVCGXProperties@@PAVCDC@@AAVCGXData@@PAVCGXStylesMap@@@Z @1499 NONAME
  ?PrintHeaderFooter@CGXGridPrintImp@@UAEXPAVCGXProperties@@PAVCDC@@PAUCPrintInfo@@AAVCRect@@AAVCGXData@@PAVCGXStylesMap@@@Z @1500 NONAME
;  ?ParseText@CGXGridPrintImp@@UAE?AVCString@@PAVCGXProperties@@PBD@Z @1501 NONAME
;  ?SubstTokenText@CGXGridPrintImp@@UAE?AVCString@@PAVCGXProperties@@HAAV2@@Z @1502 NONAME
;  ?GetTokenArgs@CGXGridPrintImp@@UAE?AVCString@@PAVCGXProperties@@AAV2@@Z @1503 NONAME
;  ?IsEqual@CGXFont@@QBEHABV1@@Z @1504 NONAME
;  ?GetCenterHorizontal@CGXProperties@@QAEHXZ @1522 NONAME
;  ?GetCenterVertical@CGXProperties@@QAEHXZ @1523 NONAME
;  ?GetPrintFrame@CGXProperties@@QAEHXZ @1524 NONAME
;  ?GetPageOrder@CGXProperties@@QAEHXZ @1525 NONAME
;  ?GetDistances@CGXProperties@@QAEXAAH0@Z @1526 NONAME
;  ?GetFirstPage@CGXProperties@@QAEHXZ @1527 NONAME
;  ?GetSheetName@CGXGridParam@@QAEABVCString@@XZ @1533 NONAME
;  ??0CGXWaitCursor@@QAE@XZ @1535 NONAME
  ??1CGXWaitCursor@@QAE@XZ @1536 NONAME

;----------------  .\objs\ogmsasd\gxcorscr.obj  ----------------

  ?ScrollCellInView@CGXGridCore@@UAEHKKIH@Z @1537 NONAME
  ?SetScrollBarMode@CGXGridCore@@UAEXHHH@Z @1538 NONAME
  ?GetScrollBarMode@CGXGridCore@@QAEHH@Z @1539 NONAME
  ?SetScrollPos@CGXGridCore@@MAEKHKH@Z @1540 NONAME
  ?SetScrollRange@CGXGridCore@@MAEXHKKH@Z @1541 NONAME
  ?GetScrollPos@CGXGridCore@@MBEKH@Z @1542 NONAME
  ?GetScrollRange@CGXGridCore@@MBEXHPAK0@Z @1543 NONAME
  ?LockScrollbars@CGXGridCore@@QAEHH@Z @1544 NONAME
  ?UpdateScrollbars@CGXGridCore@@UAEXHH@Z @1545 NONAME
  ?DoScroll@CGXGridCore@@UAEHHK@Z @1546 NONAME
  ?OnLeftColChange@CGXGridCore@@MAEHK@Z @1547 NONAME
  ?OnTopRowChange@CGXGridCore@@MAEHK@Z @1548 NONAME
  ?OnLeftColChanged@CGXGridCore@@MAEXXZ @1549 NONAME
  ?OnTopRowChanged@CGXGridCore@@MAEXXZ @1550 NONAME
  ?ScrollWindow@CGXGridCore@@IAEXHHPBUtagRECT@@0@Z @1551 NONAME
  ?AutoScroll@CGXGridCore@@QAEXHHH@Z @1552 NONAME
  ?OnAutoScroll@CGXGridCore@@UAEHHK@Z @1553 NONAME
;  ?GetTopLeftRowCol@CGXGridCore@@QAEXPAK0@Z @1561 NONAME 20.11.2017
;  ?ScrollWindowEx@CGXGridCore@@IAEHHHPBUtagRECT@@0PAVCRgn@@PAU2@I@Z @1564 NONAME
;  ?ShowScrollBar@CGXGridCore@@IAEXIH@Z @1566 NONAME

;----------------  .\objs\ogmsasd\gxcorsel.obj  ----------------

  ??0CGXLockSelectionFrame@@QAE@PAVCGXGridCore@@@Z @1571 NONAME
  ??1CGXLockSelectionFrame@@QAE@XZ @1572 NONAME
  ?CopyRangeList@CGXGridCore@@QAEHAAVCGXRangeList@@H@Z @1573 NONAME
  ?GetSelectedCols@CGXGridCore@@QAEHAAVCDWordArray@@0HH@Z @1574 NONAME
  ?GetSelectedCols@CGXGridCore@@QAEKAAVCDWordArray@@HH@Z @1575 NONAME
  ?GetSelectedRows@CGXGridCore@@QAEHAAVCDWordArray@@0HH@Z @1576 NONAME
  ?GetSelectedRows@CGXGridCore@@QAEKAAVCDWordArray@@HH@Z @1577 NONAME
  ?GetInvertStateRowCol@CGXGridCore@@UAEHKKPBVCGXRangeList@@@Z @1578 NONAME
  ?SelectRange@CGXGridCore@@UAEXABVCGXRange@@HH@Z @1579 NONAME
  ?StoreSelectRange@CGXGridCore@@MAEHABVCGXRange@@H@Z @1580 NONAME
  ?UpdateSelectRange@CGXGridCore@@MAEXABVCGXRange@@PBVCGXRangeList@@H@Z @1581 NONAME
  ?SetSelection@CGXGridCore@@QAEXPAU__POSITION@@KKKK@Z @1582 NONAME
  ?PrepareChangeSelection@CGXGridCore@@MAEXPAU__POSITION@@KKKKH@Z @1583 NONAME
  ?PrepareClearSelection@CGXGridCore@@MAEXH@Z @1584 NONAME
  ?OnChangedSelection@CGXGridCore@@MAEXPBVCGXRange@@HH@Z @1585 NONAME
  ?OnStartSelection@CGXGridCore@@MAEHKKIVCPoint@@@Z @1586 NONAME
  ?PreChangeSelection@CGXGridCore@@MAEXPAVCGXRange@@HH@Z @1587 NONAME
  ?CanChangeSelection@CGXGridCore@@MAEHPAVCGXRange@@HH@Z @1588 NONAME
  ?DrawInvertFrame@CGXGridCore@@MAEXPAVCDC@@ABVCRect@@1HHHH@Z @1589 NONAME
  ?DrawSelectionRangeFrame@CGXGridCore@@IAEXPAVCDC@@ABVCGXRange@@HH@Z @1590 NONAME
  ?DrawSelectionFrame@CGXGridCore@@QAEXPAVCDC@@HPBVCGXRange@@@Z @1591 NONAME
  ?ToggleSelectionFrameMarker@CGXGridCore@@QAEXXZ @1592 NONAME
  ?LockSelectionFrame@CGXGridCore@@QAEHHH@Z @1593 NONAME

;----------------  .\objs\ogmsasd\gxcorsiz.obj  ----------------

  ?SetRowHeight@CGXGridCore@@UAEHKKHPAHIW4GXCmdType@@@Z @1599 NONAME
  ?SetColWidth@CGXGridCore@@UAEHKKHPAHIW4GXCmdType@@@Z @1600 NONAME
  ?SetDefaultRowHeight@CGXGridCore@@UAEHHIW4GXCmdType@@@Z @1601 NONAME
  ?SetDefaultColWidth@CGXGridCore@@UAEHHIW4GXCmdType@@@Z @1602 NONAME
  ?StoreDefaultRowHeight@CGXGridCore@@MAEHH@Z @1603 NONAME
  ?StoreDefaultColWidth@CGXGridCore@@MAEHH@Z @1604 NONAME
  ?GetDefaultRowHeight@CGXGridCore@@UAEHXZ @1605 NONAME
  ?GetDefaultColWidth@CGXGridCore@@UAEHXZ @1606 NONAME
  ?GetRowHeight@CGXGridCore@@UAEHK@Z @1607 NONAME
  ?GetColWidth@CGXGridCore@@UAEHK@Z @1608 NONAME
  ?StoreRowHeight@CGXGridCore@@MAEHKH@Z @1609 NONAME
  ?StoreColWidth@CGXGridCore@@MAEHKH@Z @1610 NONAME
  ?UpdateChangedRowHeights@CGXGridCore@@MAEXKKPAHIH@Z @1611 NONAME
  ?UpdateChangedColWidths@CGXGridCore@@MAEXKKPAHIH@Z @1612 NONAME
  ?GetArrayWithRowHeights@CGXGridCore@@QAEXKKPAH@Z @1613 NONAME
  ?GetArrayWithColWidths@CGXGridCore@@QAEXKKPAH@Z @1614 NONAME
  ?CalcRectFromRowColEx@CGXGridCore@@QAE?AVCRect@@KK@Z @1615 NONAME
  ?CalcRectFromRowColExEx@CGXGridCore@@QAE?AVCRect@@KK@Z @1616 NONAME
  ?CalcRectFromRowColEx@CGXGridCore@@QAE?AVCRect@@KKKK@Z @1617 NONAME
  ?CalcRectFromRowColExEx@CGXGridCore@@QAE?AVCRect@@KKKK@Z @1618 NONAME
  ?CalcRectFromRowCol@CGXGridCore@@QAE?AVCRect@@KKKKH@Z @1619 NONAME
  ?CalcClientColFromPt@CGXGridCore@@QAEKAAVCPoint@@PAH@Z @1620 NONAME
  ?CalcClientRowFromPt@CGXGridCore@@QAEKAAVCPoint@@PAH@Z @1621 NONAME
  ?CalcRightColFromRect@CGXGridCore@@QAEKABVCRect@@@Z @1622 NONAME
  ?CalcBottomRowFromRect@CGXGridCore@@QAEKABVCRect@@@Z @1623 NONAME
  ?CalcRightColFromRect@CGXGridCore@@QAEKABVCRect@@AAH@Z @1624 NONAME
  ?CalcBottomRowFromRect@CGXGridCore@@QAEKABVCRect@@AAH@Z @1625 NONAME
  ?CalcBottomRightRowColFromRect@CGXGridCore@@QAEXABVCRect@@PAK1@Z @1626 NONAME
  ?CalcClientRectRightFromCol@CGXGridCore@@IAE?AVCRect@@K@Z @1627 NONAME
  ?CalcClientRectBottomFromRow@CGXGridCore@@IAE?AVCRect@@K@Z @1628 NONAME
  ?CalcLeftFromClientCol@CGXGridCore@@IAEHK@Z @1629 NONAME
  ?CalcTopFromClientRow@CGXGridCore@@IAEHK@Z @1630 NONAME
  ?CalcSumOfRowHeights@CGXGridCore@@QAEHKKH@Z @1631 NONAME
  ?CalcSumOfColWidths@CGXGridCore@@QAEHKKH@Z @1632 NONAME
  ?CalcSumOfClientRowHeights@CGXGridCore@@QAEHKKH@Z @1633 NONAME
  ?CalcSumOfClientColWidths@CGXGridCore@@QAEHKKH@Z @1634 NONAME
  ?OnStartTracking@CGXGridCore@@MAEHKKH@Z @1635 NONAME
  ?OnMoveTracking@CGXGridCore@@MAEXKKHAAVCSize@@@Z @1636 NONAME
  ?OnCancelTracking@CGXGridCore@@MAEXXZ @1637 NONAME
  ?OnEndTracking@CGXGridCore@@MAEXKKHAAVCSize@@@Z @1638 NONAME
  ?OnTrackColWidth@CGXGridCore@@MAEHK@Z @1639 NONAME
  ?OnTrackColWidthStart@CGXGridCore@@MAEHK@Z @1640 NONAME
  ?OnTrackColWidthMove@CGXGridCore@@MAEHKH@Z @1641 NONAME
  ?OnTrackColWidthEnd@CGXGridCore@@MAEHKH@Z @1642 NONAME
  ?OnTrackRowHeight@CGXGridCore@@MAEHK@Z @1643 NONAME
  ?OnTrackRowHeightStart@CGXGridCore@@MAEHK@Z @1644 NONAME
  ?OnTrackRowHeightMove@CGXGridCore@@MAEHKH@Z @1645 NONAME
  ?OnTrackRowHeightEnd@CGXGridCore@@MAEHKH@Z @1646 NONAME
  ?HitTest@CGXGridCore@@QAEHAAVCPoint@@PAK1PAVCRect@@@Z @1647 NONAME
  ?OnExtHitTest@CGXGridCore@@UAEHKKAAVCPoint@@AAVCRect@@@Z @1648 NONAME
  ?SetGridCursor@CGXGridCore@@UAEXI@Z @1649 NONAME
  ?ShowContextCursor@CGXGridCore@@UAEXAAVCPoint@@@Z @1650 NONAME
  ?ShowContextCursor@CGXGridCore@@UAEXIPBD@Z @1651 NONAME
  ?SetZoom@CGXGridCore@@UAEXHI@Z @1652 NONAME
  ?GetZoom@CGXGridCore@@UAEHXZ @1653 NONAME
  ?StoreZoom@CGXGridCore@@MAEHHH@Z @1654 NONAME
  ?UpdateZoom@CGXGridCore@@MAEXHIH@Z @1655 NONAME
  ?UpdateFontMetrics@CGXGridCore@@QAEXXZ @1656 NONAME
  ?GetDefaultFontSize@CGXGridCore@@IAEXAAH0@Z @1657 NONAME
  ?GetFontMetrics@CGXGridCore@@MAEXPAVCDC@@AAH1@Z @1658 NONAME
  ?GetFontHeight@CGXGridCore@@QAEHXZ @1659 NONAME
  ?GetFontWidth@CGXGridCore@@QAEHXZ @1660 NONAME
;  ?Height_DPtoLP@CGXGridCore@@QAEJH@Z @1668 NONAME
;  ?Width_DPtoLP@CGXGridCore@@QAEJH@Z @1669 NONAME
;  ?Height_LPtoDP@CGXGridCore@@QAEHJ@Z @1670 NONAME
;  ?Width_LPtoDP@CGXGridCore@@QAEHJ@Z @1671 NONAME
;  ?SetCells@CGXRange@@QAEAAV1@KK@Z @1672 NONAME
;  ?GetAt@CGXRangeList@@QAEAAPAVCGXRange@@PAU__POSITION@@@Z @1675 NONAME
;  ?SetLastZoom@CGXProperties@@QAEXH@Z @1676 NONAME

;----------------  .\objs\ogmsasd\gxcorsty.obj  ----------------

  ?RegisterControl@CGXGridCore@@QAEXGPAVCGXControl@@HH@Z @1681 NONAME
  ?GetRegisteredControl@CGXGridCore@@UAEPAVCGXControl@@G@Z @1682 NONAME
  ?StandardStyle@CGXGridCore@@QAEAAVCGXStyle@@XZ @1683 NONAME
  ?RowHeaderStyle@CGXGridCore@@QAEAAVCGXStyle@@XZ @1684 NONAME
  ?ColHeaderStyle@CGXGridCore@@QAEAAVCGXStyle@@XZ @1685 NONAME
  ?BaseStyle@CGXGridCore@@QAEAAVCGXStyle@@G@Z @1686 NONAME
  ?GetStyleArray@CGXGridCore@@UAEPAVCObArray@@ABVCGXRange@@HPAVCGXLongOperation@@@Z @1687 NONAME
  ?SetStyleRange@CGXGridCore@@UAEHABVCGXRange@@PBVCGXStyle@@W4GXModifyType@@HPBVCObArray@@IW4GXCmdType@@@Z @1690 NONAME
  ?StoreStyleRowCol@CGXGridCore@@UAEHKKPBVCGXStyle@@W4GXModifyType@@H@Z @1692 NONAME
  ?GetStyleRowCol@CGXGridCore@@UAEHKKAAVCGXStyle@@W4GXModifyType@@H@Z @1693 NONAME
  ?GetLastVisibleRow@CGXGridCore@@QAEKPAH@Z @1694 NONAME
  ?GetLastVisibleCol@CGXGridCore@@QAEKPAH@Z @1695 NONAME
  ?UpdateStyleRange@CGXGridCore@@UAEXABVCGXRange@@PBVCGXStyle@@W4GXModifyType@@HIH@Z @1696 NONAME
  ?ComposeStyleRowCol@CGXGridCore@@UAEXKKPAVCGXStyle@@H@Z @1697 NONAME
;  ?GetValueRowCol@CGXGridCore@@QAEABVCString@@KK@Z @1698 NONAME
;  ?GetExpressionRowCol@CGXGridCore@@QAEABVCString@@KK@Z @1699 NONAME
  ?ChangeStylesMap@CGXGridCore@@UAEHABVCGXStylesMap@@IW4GXCmdType@@@Z @1700 NONAME
  ?UpdateStylesMap@CGXGridCore@@UAEXIH@Z @1701 NONAME
  ?ChangeProperties@CGXGridCore@@UAEHABVCGXProperties@@IW4GXCmdType@@@Z @1702 NONAME
  ?UpdateProperties@CGXGridCore@@UAEXIH@Z @1703 NONAME
  ?ChangeStandardStyle@CGXGridCore@@QAEHABVCGXStyle@@W4GXModifyType@@IW4GXCmdType@@@Z @1704 NONAME
  ?ChangeRowHeaderStyle@CGXGridCore@@QAEHABVCGXStyle@@W4GXModifyType@@IW4GXCmdType@@@Z @1705 NONAME
  ?ChangeColHeaderStyle@CGXGridCore@@QAEHABVCGXStyle@@W4GXModifyType@@IW4GXCmdType@@@Z @1706 NONAME
  ?ChangeBaseStyle@CGXGridCore@@UAEHGABVCGXStyle@@W4GXModifyType@@IW4GXCmdType@@@Z @1707 NONAME
  ?UpdateBaseStyle@CGXGridCore@@UAEXGIH@Z @1708 NONAME
;  ?SetControlTextRowCol@CGXGridCore@@UAEHKKABVCString@@IPBVCGXStyle@@@Z @1709 NONAME
	?SetControlTextRowCol@CGXGridCore@@UAEHKKABV?$CStringT@DV?$StrTraitMFC_DLL@DV?$ChTraitsCRT@D@ATL@@@@@ATL@@IPBVCGXStyle@@@Z @1709 NONAME
  ?SetPattern@CGXBrush@@QAEAAU1@H@Z @1711 NONAME
;  ?SetStyle@CGXBrush@@QAEAAU1@I@Z @1712 NONAME
;  ?SetInterior@CGXStyle@@QAEAAV1@ABUCGXBrush@@@Z @1716 NONAME
;  ?SetIncludeInterior@CGXStyle@@QAEAAV1@H@Z @1718 NONAME
;  ?SetValue@CGXStyle@@QAEAAV1@K@Z @1724 NONAME 20.11.2017
;  ?GetStyleName@CGXStylesMap@@QBEPBDG@Z @1727 NONAME
;  ?GetHitState@CGXGridCore@@QAEGXZ @1731 NONAME
;  ?IsNumberedRowHeaders@CGXGridParam@@QAEHXZ @1741 NONAME
;  ?IsNumberedColHeaders@CGXGridParam@@QAEHXZ @1742 NONAME
;  ?GXGetPatternBitmap@@YGPBVCBitmap@@H@Z @1747 NONAME

;----------------  .\objs\ogmsasd\gxcpmov.obj  ----------------

  ?ImplementDirectCopyMoveCells@CGXGridCore@@QAEXXZ @1755 NONAME
;  ??0CGXGridDirectCopyMoveCellsImp@@QAE@XZ @1756 NONAME

;  ??0CGXAbstractGridDirectCopyMoveCellsImp@@QAE@XZ @1758 NONAME

  ?CopyCells@CGXGridDirectCopyMoveCellsImp@@UAEHPAVCGXGridCore@@AAVCGXRange@@KKI@Z @1760 NONAME
  ?StoreCopyCells@CGXGridDirectCopyMoveCellsImp@@UAEHPAVCGXGridCore@@AAVCGXRange@@KK@Z @1763 NONAME
  ?MoveCells@CGXGridDirectCopyMoveCellsImp@@UAEHPAVCGXGridCore@@AAVCGXRange@@KKPAVCObject@@IW4GXCmdType@@@Z @1764 NONAME
  ?StoreMoveCells@CGXGridDirectCopyMoveCellsImp@@UAEHPAVCGXGridCore@@AAVCGXRange@@KKAAPAVCObject@@HW4GXCmdType@@@Z @1765 NONAME

;----------------  .\objs\ogmsasd\gxcpmovd.obj  ----------------

  ?ImplementCopyMoveCells@CGXData@@SGXXZ @1774 NONAME
;  ??0CGXDataCopyMoveCellsImp@@QAE@XZ @1775 NONAME

;  ??0CGXAbstractDataCopyMoveCellsImp@@QAE@XZ @1777 NONAME

  ?StoreCopyCells@CGXDataCopyMoveCellsImp@@UAEHPAVCGXData@@VCGXRange@@KK@Z @1779 NONAME
  ?GetRuntimeClass@CGXDataUndoMoveCellsInfo@@UBEPAUCRuntimeClass@@XZ @1781 NONAME
  ?StoreMoveCells@CGXDataCopyMoveCellsImp@@UAEHPAVCGXData@@AAVCGXRange@@KKAAPAVCObject@@HH@Z @1782 NONAME
;  ??0CGXDataUndoMoveCellsInfo@@QAE@XZ @1783 NONAME
;  ??1CGXDataUndoMoveCellsInfo@@UAE@XZ @1786 NONAME 20.11.2017
;  ??0CGXStylePtrArray@@QAE@XZ @1787 NONAME
;  ?GetAt@CGXStylePtrArray@@QBEPAVCGXStyle@@H@Z @1790 NONAME
;  ?SetAt@CGXStylePtrArray@@QAEXHPAVCGXStyle@@@Z @1791 NONAME
;  ?SetAtGrow@CGXStylePtrArray@@QAEXHPAVCGXStyle@@@Z @1792 NONAME
;  ?GetAt@CGXStylePtrArrayPtrArray@@QBEPAVCGXStylePtrArray@@H@Z @1793 NONAME
;  ?SetAtGrow@CGXStylePtrArrayPtrArray@@QAEXHPAVCGXStylePtrArray@@@Z @1794 NONAME

;----------------  .\objs\ogmsasd\gxcpush.obj  ----------------

  ?_GetControlBaseClass@CGXPushbutton@@KGPAUCGXControlClass@@XZ @1796 NONAME
  ?GetControlClass@CGXPushbutton@@UBEPAUCGXControlClass@@XZ @1797 NONAME
  ??0CGXPushbutton@@QAE@PAVCGXGridCore@@@Z @1798 NONAME
;  ??1CGXPushbutton@@UAE@XZ @1801 NONAME
  ??0CGXPushbutton@@QAE@PAVCGXGridCore@@PAVCGXButton@@@Z @1802 NONAME
  ?Init@CGXPushbutton@@UAEXKK@Z @1803 NONAME
  ?OnInitChildren@CGXPushbutton@@MAEXKKABVCRect@@@Z @1804 NONAME
  ?Draw@CGXPushbutton@@UAEXPAVCDC@@VCRect@@KKABVCGXStyle@@PBV4@@Z @1805 NONAME
  ?CalcSize@CGXPushbutton@@UAE?AVCSize@@PAVCDC@@KKABVCGXStyle@@PBV4@H@Z @1806 NONAME
  ?InvertBorders@CGXPushbutton@@UAEXPAVCDC@@ABVCRect@@@Z @1807 NONAME

;----------------  .\objs\ogmsasd\gxcradio.obj  ----------------

  ?_GetControlBaseClass@CGXRadioButton@@KGPAUCGXControlClass@@XZ @1814 NONAME
  ?GetControlClass@CGXRadioButton@@UBEPAUCGXControlClass@@XZ @1815 NONAME
  ?GXDrawRadioButtons@@YGHPAVCDC@@VCRect@@PBD2H@Z @1816 NONAME
  ?GXHitTestRadioButtons@@YGHPAVCDC@@VCRect@@PBDVCPoint@@@Z @1817 NONAME
  ??0CGXRadioButton@@QAE@PAVCGXGridCore@@H@Z @1819 NONAME
;  ??1CGXRadioButton@@UAE@XZ @1822 NONAME
  ?Draw@CGXRadioButton@@UAEXPAVCDC@@VCRect@@KKABVCGXStyle@@PBV4@@Z @1823 NONAME
  ?CalcSize@CGXRadioButton@@UAE?AVCSize@@PAVCDC@@KKABVCGXStyle@@PBV4@H@Z @1824 NONAME
  ?LButtonDown@CGXRadioButton@@UAEHIVCPoint@@I@Z @1825 NONAME
  ?LButtonUp@CGXRadioButton@@UAEHIVCPoint@@I@Z @1826 NONAME
  ?KeyPressed@CGXRadioButton@@UAEHIIII@Z @1827 NONAME
  ?SetValueRange@CGXGridCore@@QAEHABVCGXRange@@PBDW4GXModifyType@@HI@Z @1838 NONAME

;----------------  .\objs\ogmsasd\gxcstat.obj  ----------------

  ?_GetControlBaseClass@CGXStatic@@KGPAUCGXControlClass@@XZ @1849 NONAME
  ?GetControlClass@CGXStatic@@UBEPAUCGXControlClass@@XZ @1850 NONAME
  ??0CGXStatic@@QAE@PAVCGXGridCore@@@Z @1851 NONAME
  ?GetCellRect@CGXStatic@@UAE?AVCRect@@KKPAUtagRECT@@PBVCGXStyle@@@Z @1855 NONAME
  ?AddBorders@CGXStatic@@UAE?AVCSize@@V2@ABVCGXStyle@@@Z @1856 NONAME
  ?Draw@CGXStatic@@UAEXPAVCDC@@VCRect@@KKABVCGXStyle@@PBV4@@Z @1857 NONAME
  ?CalcSize@CGXStatic@@UAE?AVCSize@@PAVCDC@@KKABVCGXStyle@@PBV4@H@Z @1858 NONAME
  ?CanFloatCell@CGXStatic@@UAEHKKABVCGXStyle@@H@Z @1859 NONAME

;----------------  .\objs\ogmsasd\Gxctrl.obj  ----------------

;  ?GXGetDoubleByteChar@@YGHDAAVCString@@AAHAAD@Z @1864 NONAME
  ??0CGXControl@@QAE@PAVCGXGridCore@@@Z @1865 NONAME
  ??1CGXControl@@UAE@XZ @1868 NONAME
  ?_GetControlBaseClass@CGXControl@@SGPAUCGXControlClass@@XZ @1869 NONAME
  ?GetControlClass@CGXControl@@UBEPAUCGXControlClass@@XZ @1870 NONAME
  ?GetRuntimeClass@CGXControl@@UBEPAUCRuntimeClass@@XZ @1871 NONAME
  ?IsKindOf@CGXControl@@QBEHPBUCGXControlClass@@@Z @1872 NONAME
  ?IsKindOf@CGXControl@@QBEHPBUCRuntimeClass@@@Z @1873 NONAME
  ??BCGXControl@@QAEPAVCWnd@@XZ @1874 NONAME
  ?GetWndPtr@CGXControl@@UBEPAVCWnd@@XZ @1875 NONAME
  ?Hide@CGXControl@@UAEXXZ @1876 NONAME
  ?AddUserAttributes@CGXControl@@SGXPAVCGXStylesMap@@@Z @1877 NONAME
  ?Refresh@CGXControl@@UAEXXZ @1878 NONAME
  ?SetActive@CGXControl@@UAEXH@Z @1879 NONAME
  ?IsActive@CGXControl@@UAEHXZ @1880 NONAME
  ?SetModify@CGXControl@@UAEXH@Z @1881 NONAME
  ?GetModify@CGXControl@@UAEHXZ @1882 NONAME
  ?Store@CGXControl@@UAEHXZ @1883 NONAME
  ?OnStartEditing@CGXControl@@UAEHXZ @1884 NONAME
  ?OnModifyCell@CGXControl@@UAEXXZ @1885 NONAME
  ?OnCancelEditing@CGXControl@@UAEHXZ @1886 NONAME
  ?OnCanceledEditing@CGXControl@@UAEXXZ @1887 NONAME
  ?OnEndEditing@CGXControl@@UAEHXZ @1888 NONAME
  ?OnLeftCell@CGXControl@@UAEHKK@Z @1889 NONAME
  ?OnValidate@CGXControl@@UAEHXZ @1890 NONAME
;  ?ValidateString@CGXControl@@MAEHABVCString@@@Z @1891 NONAME
	?ValidateString@CGXControl@@MAEHABV?$CStringT@DV?$StrTraitMFC_DLL@DV?$ChTraitsCRT@D@ATL@@@@@ATL@@@Z @1891 NONAME
  ?OnInvalidKeyPressed@CGXControl@@MAEXPBD@Z @1892 NONAME
  ?OnDeleteCell@CGXControl@@UAEHXZ @1893 NONAME
  ?Init@CGXControl@@UAEXKK@Z @1894 NONAME
  ?IsInit@CGXControl@@QBEHXZ @1895 NONAME
  ?IsInit@CGXControl@@QBEHKK@Z @1896 NONAME
  ?Reset@CGXControl@@UAEXXZ @1897 NONAME
  ?FreeStyle@CGXControl@@IAEXH@Z @1898 NONAME
  ?NeedStyle@CGXControl@@IAEPAVCGXStyle@@XZ @1899 NONAME
  ?IsReadOnly@CGXControl@@UAEHXZ @1900 NONAME
  ?Grid@CGXControl@@QAEPAVCGXGridCore@@XZ @1901 NONAME
  ?GridWnd@CGXControl@@QAEPAVCWnd@@XZ @1902 NONAME
  ?GetCellRect@CGXControl@@UAE?AVCRect@@KKPAUtagRECT@@PBVCGXStyle@@@Z @1903 NONAME
  ?AddBorders@CGXControl@@UAE?AVCSize@@V2@ABVCGXStyle@@@Z @1904 NONAME
  ?CalcSize@CGXControl@@UAE?AVCSize@@PAVCDC@@KKABVCGXStyle@@PBV4@H@Z @1905 NONAME
  ?CanFloatCell@CGXControl@@UAEHKKABVCGXStyle@@H@Z @1906 NONAME
  ?CanMergeCell@CGXControl@@UAEHKKABVCGXStyle@@H@Z @1907 NONAME
  ?InvertBorders@CGXControl@@UAEXPAVCDC@@ABVCRect@@@Z @1908 NONAME
;  ?GetChoiceListItem@CGXControl@@UAEHAAVCString@@PBDH@Z @1909 NONAME
	?GetChoiceListItem@CGXControl@@UAEHAAV?$CStringT@DV?$StrTraitMFC_DLL@DV?$ChTraitsCRT@D@ATL@@@@@ATL@@PBDH@Z @1909 NONAME

;  ?FindStringInChoiceList@CGXControl@@UAEHAAVCString@@PBD1H@Z @1910 NONAME
	?FindStringInChoiceList@CGXControl@@UAEHAAV?$CStringT@DV?$StrTraitMFC_DLL@DV?$ChTraitsCRT@D@ATL@@@@@ATL@@PBD1H@Z @1910 NONAME

  ?Draw@CGXControl@@UAEXPAVCDC@@VCRect@@KKABVCGXStyle@@PBV4@@Z @1913 NONAME
;  ?GetValue@CGXControl@@UAEHAAVCString@@@Z @1914 NONAME
	?GetValue@CGXControl@@UAEHAAV?$CStringT@DV?$StrTraitMFC_DLL@DV?$ChTraitsCRT@D@ATL@@@@@ATL@@@Z @1914 NONAME

  ?SetValue@CGXControl@@UAEXPBD@Z @1915 NONAME
;  ?GetCurrentText@CGXControl@@UAEXAAVCString@@@Z @1916 NONAME
	?GetCurrentText@CGXControl@@UAEXAAV?$CStringT@DV?$StrTraitMFC_DLL@DV?$ChTraitsCRT@D@ATL@@@@@ATL@@@Z @1916 NONAME

;  ?SetCurrentText@CGXControl@@UAEXABVCString@@@Z @1917 NONAME
	?SetCurrentText@CGXControl@@UAEXABV?$CStringT@DV?$StrTraitMFC_DLL@DV?$ChTraitsCRT@D@ATL@@@@@ATL@@@Z @1917 NONAME

;  ?GetControlText@CGXControl@@UAEHAAVCString@@KKPBDABVCGXStyle@@@Z @1918 NONAME
	?GetControlText@CGXControl@@UAEHAAV?$CStringT@DV?$StrTraitMFC_DLL@DV?$ChTraitsCRT@D@ATL@@@@@ATL@@KKPBDABVCGXStyle@@@Z @1918 NONAME

;  ?SetControlText@CGXControl@@UAEHKKABVCString@@IPBVCGXStyle@@@Z @1919 NONAME
	?SetControlText@CGXControl@@UAEHKKABV?$CStringT@DV?$StrTraitMFC_DLL@DV?$ChTraitsCRT@D@ATL@@@@@ATL@@IPBVCGXStyle@@@Z @1919 NONAME
	
;  ?ConvertControlTextToValue@CGXControl@@UAEHAAVCString@@KKPBVCGXStyle@@@Z @1920 NONAME
	?ConvertControlTextToValue@CGXControl@@UAEHAAV?$CStringT@DV?$StrTraitMFC_DLL@DV?$ChTraitsCRT@D@ATL@@@@@ATL@@KKPBVCGXStyle@@@Z @1920 NONAME
	
  ?StoreStyle@CGXControl@@UAEHKKPBVCGXStyle@@W4GXModifyType@@H0@Z @1921 NONAME
  ?LoadStyle@CGXControl@@UAEHKKPAVCGXStyle@@@Z @1922 NONAME
  ?GetMarkHeaderState@CGXControl@@MAEHKKABVCGXStyle@@@Z @1923 NONAME
  ?OnClickedButton@CGXControl@@UAEXPAVCGXChild@@@Z @1924 NONAME
  ?LButtonDown@CGXControl@@UAEHIVCPoint@@I@Z @1925 NONAME
  ?MouseMove@CGXControl@@UAEHIVCPoint@@I@Z @1926 NONAME
  ?LButtonUp@CGXControl@@UAEHIVCPoint@@I@Z @1927 NONAME
  ?MButtonDown@CGXControl@@UAEHIVCPoint@@I@Z @1928 NONAME
  ?MButtonUp@CGXControl@@UAEHIVCPoint@@I@Z @1929 NONAME
  ?RButtonDown@CGXControl@@UAEHIVCPoint@@I@Z @1930 NONAME
  ?RButtonUp@CGXControl@@UAEHIVCPoint@@I@Z @1931 NONAME
  ?LButtonDblClk@CGXControl@@UAEHIVCPoint@@@Z @1932 NONAME
  ?MButtonDblClk@CGXControl@@UAEHIVCPoint@@@Z @1933 NONAME
  ?RButtonDblClk@CGXControl@@UAEHIVCPoint@@@Z @1934 NONAME
  ?MouseMoveOver@CGXControl@@UAEHKKIVCPoint@@@Z @1935 NONAME
  ?MouseActivate@CGXControl@@UAEHPAVCWnd@@IIAAH@Z @1936 NONAME
  ?KeyPressed@CGXControl@@UAEHIIII@Z @1937 NONAME
  ?OnGridKeyDown@CGXControl@@UAEHIII@Z @1938 NONAME
  ?OnGridKeyUp@CGXControl@@UAEHIII@Z @1939 NONAME
  ?OnGridChar@CGXControl@@UAEHIII@Z @1940 NONAME
;  ?OnGridDoubleByteChar@CGXControl@@UAEHABVCString@@II@Z @1941 NONAME
	?OnGridDoubleByteChar@CGXControl@@UAEHABV?$CStringT@DV?$StrTraitMFC_DLL@DV?$ChTraitsCRT@D@ATL@@@@@ATL@@II@Z @1941 NONAME

  ?OnGridDeadChar@CGXControl@@UAEHIII@Z @1942 NONAME
  ?OnGridSysKeyDown@CGXControl@@UAEHIII@Z @1943 NONAME
  ?OnGridSysKeyUp@CGXControl@@UAEHIII@Z @1944 NONAME
  ?OnGridSysChar@CGXControl@@UAEHIII@Z @1945 NONAME
  ?OnGridSysDeadChar@CGXControl@@UAEHIII@Z @1946 NONAME
;  ?GetSortKey@CGXControl@@UAEXKKABUCGXSortInfo@@ABVCGXStyle@@AAVCString@@@Z @1947 NONAME
	?GetSortKey@CGXControl@@UAEXKKABUCGXSortInfo@@ABVCGXStyle@@AAV?$CStringT@DV?$StrTraitMFC_DLL@DV?$ChTraitsCRT@D@ATL@@@@@ATL@@@Z @1947 NONAME

  ?FindTextA@CGXControl@@UAEHABUGX_FR_STATE@@KKHH@Z @1948 NONAME
  ?ReplaceSel@CGXControl@@UAEXPBD@Z @1949 NONAME
  ?ReplaceAll@CGXControl@@UAEHABUGX_FR_STATE@@KK@Z @1950 NONAME
;  ?GetSelectedText@CGXControl@@UAEHAAVCString@@@Z @1951 NONAME
	?GetSelectedText@CGXControl@@UAEHAAV?$CStringT@DV?$StrTraitMFC_DLL@DV?$ChTraitsCRT@D@ATL@@@@@ATL@@@Z @1951 NONAME
  ?CanCopy@CGXControl@@UAEHXZ @1952 NONAME
  ?Copy@CGXControl@@UAEHXZ @1953 NONAME
  ?CanCut@CGXControl@@UAEHXZ @1954 NONAME
  ?Cut@CGXControl@@UAEHXZ @1955 NONAME
  ?CanPaste@CGXControl@@UAEHXZ @1956 NONAME
  ?Paste@CGXControl@@UAEHXZ @1957 NONAME
  ?OnCommand@CGXControl@@UAEHIJ@Z @1958 NONAME
  ?LoadFont@CGXControl@@IAEPAVCFont@@PAVCDC@@ABVCGXStyle@@PBV4@@Z @1959 NONAME
  ?OnNotifyMsg@CGXControl@@UAEXPAUtagMSG@@@Z @1960 NONAME
  ?OnGridWinIniChange@CGXControl@@UAEXPBD@Z @1961 NONAME
  ?OnGridSysColorChange@CGXControl@@UAEXXZ @1962 NONAME
  ?OnGridCtlColor@CGXControl@@UAEPAUHBRUSH__@@PAVCDC@@PAVCWnd@@I@Z @1963 NONAME
  ?OnKillFocus@CGXControl@@IAEXPAVCWnd@@@Z @1964 NONAME
  ?OnGridPreTranslateMessage@CGXControl@@UAEHPAUtagMSG@@@Z @1965 NONAME
  ?ExcludeClipRect@CGXControl@@IAEXABVCRect@@@Z @1966 NONAME
  ?AddChild@CGXControl@@MAEXPAVCGXChild@@@Z @1967 NONAME
  ?GetChild@CGXControl@@MAEPAVCGXChild@@H@Z @1968 NONAME
  ?GetCount@CGXControl@@MAEHXZ @1969 NONAME
  ?OnInitChildren@CGXControl@@MAEXKKABVCRect@@@Z @1970 NONAME
  ?FocusOnChild@CGXControl@@MAEXPAVCGXChild@@@Z @1971 NONAME
  ?ChildWithFocus@CGXControl@@MAEPAVCGXChild@@XZ @1972 NONAME
  ?DrawBackground@CGXControl@@MAEXPAVCDC@@ABVCRect@@ABVCGXStyle@@H@Z @1973 NONAME
  ?DrawFrame@CGXControl@@MAEXPAVCDC@@ABVCRect@@ABVCGXStyle@@@Z @1974 NONAME
  ?OnGridCancelMode@CGXControl@@UAEXXZ @1975 NONAME
;  ?GetIncludeFormat@CGXStyle@@QBEHXZ @2003 NONAME
  ?GetFormat@CGXStyle@@QBEIXZ @2004 NONAME
;  ?GetValue@CGXStyle@@QBEABVCString@@XZ @2006 NONAME
;  ?IsTransparentBackground@CGXGridParam@@QAEHXZ @2030 NONAME
;  ?GXFormatText@@YG?AVCString@@ABVCGXStyle@@PBDIPAVCGXGridCore@@PAVCGXControl@@@Z @2036 NONAME

;----------------  .\objs\ogmsasd\gxcvedit.obj  ----------------

  ?_GetControlBaseClass@CGXVScrollEdit@@KGPAUCGXControlClass@@XZ @2042 NONAME
  ?GetControlClass@CGXVScrollEdit@@UBEPAUCGXControlClass@@XZ @2043 NONAME
  ?GetRuntimeClass@CGXVScrollEdit@@UBEPAUCRuntimeClass@@XZ @2045 NONAME
  ??0CGXVScrollEdit@@QAE@PAVCGXGridCore@@I@Z @2046 NONAME
;  ??1CGXVScrollEdit@@UAE@XZ @2050 NONAME
  ?GetMessageMap@CGXVScrollEdit@@MBEPBUAFX_MSGMAP@@XZ @2052 NONAME
  ?CalcEditStyle@CGXVScrollEdit@@UAEKPAUtagRECT@@AAH@Z @2053 NONAME
  ?CanFloatCell@CGXVScrollEdit@@UAEHKKABVCGXStyle@@H@Z @2054 NONAME
;  ?GetRuntimeClass@CGXVScrollEdit@@WEA@BEPAUCRuntimeClass@@XZ @2056 NONAME

;----------------  .\objs\ogmsasd\gxcvrcel.obj  ----------------

  ?CreateObject@CGXCoveredCellPool@@SGPAVCObject@@XZ @2059 NONAME
  ?GetRuntimeClass@CGXCoveredCellPool@@UBEPAUCRuntimeClass@@XZ @2061 NONAME
  ?ImplementCoveredCellPool@CGXCoveredCellPool@@SGXXZ @2062 NONAME
;  ??0CGXCoveredCellPoolImp@@QAE@XZ @2063 NONAME

;  ??0CGXAbstractCoveredCellPoolImp@@QAE@XZ @2065 NONAME

  ?CreateCoveredCellPool@CGXCoveredCellPoolImp@@UAEPAVCGXCoveredCellPool@@XZ @2067 NONAME
  ?InitFromRangeList@CGXCoveredCellPoolImp@@UAEXPAVCGXCoveredCellPool@@AAVCGXRangeList@@@Z @2068 NONAME
  ?ImplementCoveredCells@CGXGridCore@@QAEXXZ @2069 NONAME
;  ??0CGXGridCoveredCellsImp@@QAE@XZ @2070 NONAME

;  ??0CGXAbstractGridCoveredCellsImp@@QAE@XZ @2072 NONAME

  ?SetCoveredCellsRowCol@CGXGridCoveredCellsImp@@UAEHPAVCGXGridCore@@KKKKIW4GXCmdType@@@Z @2074 NONAME
  ?GetCoveredCellsRowCol@CGXGridCoveredCellsImp@@UAEPAVCGXRange@@PAVCGXGridCore@@KKAAV2@@Z @2075 NONAME
  ?MergeCoveredCells@CGXGridCoveredCellsImp@@UAEXPAVCGXGridCore@@AAVCGXRange@@@Z @2076 NONAME
  ?StoreCoveredCellsRowCol@CGXGridCoveredCellsImp@@UAEHPAVCGXGridCore@@KKKKH@Z @2077 NONAME
  ?UpdateCoveredCellsRowCol@CGXGridCoveredCellsImp@@UAEXPAVCGXGridCore@@KKKKIH@Z @2080 NONAME
  ?RemoveRows@CGXGridCoveredCellsImp@@UAEHPAVCGXGridCore@@KKAAIW4GXCmdType@@@Z @2081 NONAME
  ?RemoveCols@CGXGridCoveredCellsImp@@UAEHPAVCGXGridCore@@KKAAIW4GXCmdType@@@Z @2082 NONAME
  ??0CGXCoveredCellPool@@QAE@XZ @2083 NONAME
;  ??1CGXCoveredCellPool@@UAE@XZ @2086 NONAME
  ?GetSpanCellsRowCol@CGXCoveredCellPool@@UAEPAU__POSITION@@KK@Z @2087 NONAME
  ?StoreSpanCellsRowCol@CGXCoveredCellPool@@UAEHKKKKPAU__POSITION@@@Z @2088 NONAME
  ?InitFromRangeList@CGXCoveredCellPool@@QAEXPBVCGXRangeList@@@Z @2089 NONAME
  ?MakeEmpty@CGXCoveredCellPool@@QAEXXZ @2090 NONAME
;  ??0CGXPtrArrayPtrArray@@QAE@XZ @2091 NONAME
;  ?SetAtGrow@CGXPtrArrayPtrArray@@QAEXHPAVCPtrArray@@@Z @2095 NONAME
;  ??8CGXRange@@QBEHABV0@@Z @2102 NONAME 20.11.2017
;  ??9CGXRange@@QBEHABV0@@Z @2103 NONAME 20.11.2017

;----------------  .\objs\ogmsasd\gxcvrdra.obj  ----------------

  ?ImplementDrawSpannedCells@CGXGridCore@@QAEXXZ @2110 NONAME
;  ??0CGXDrawSpannedCellsImp@@QAE@XZ @2111 NONAME

;  ??0CGXAbstractDrawSpannedCellsImp@@QAE@XZ @2113 NONAME

  ?EvalVisibleFloatMergeCells@CGXDrawSpannedCellsImp@@UAEHPAVCGXGridCore@@ABVCGXRange@@KKKKKKHPAV3@H@Z @2115 NONAME
  ?OnDrawTLBR_LoadCell@CGXDrawSpannedCellsImp@@UAEHPAVCGXGridCore@@PAXII@Z @2116 NONAME
  ?OnDrawTLBR_DrawCell@CGXDrawSpannedCellsImp@@UAEHPAVCGXGridCore@@PAXII@Z @2117 NONAME
;  ?IsCells@CGXRange@@QBEHXZ @2130 NONAME

;----------------  .\objs\ogmsasd\GXDATA.obj  ----------------

  ?CreateObject@CGXData@@SGPAVCObject@@XZ @2135 NONAME
  ?GetRuntimeClass@CGXData@@UBEPAUCRuntimeClass@@XZ @2137 NONAME
  ??5@YGAAVCArchive@@AAV0@AAPAVCGXData@@@Z @2138 NONAME
  ?GetRuntimeClass@CGXStylePtrArray@@UBEPAUCRuntimeClass@@XZ @2140 NONAME
  ?GetRuntimeClass@CGXStylePtrArrayPtrArray@@UBEPAUCRuntimeClass@@XZ @2142 NONAME
  ??1CGXStylePtrArray@@UAE@XZ @2143 NONAME
  ?DeleteAll@CGXStylePtrArray@@QAEXXZ @2145 NONAME
  ?DeleteAt@CGXStylePtrArray@@QAEXHH@Z @2146 NONAME
  ?Move@CGXStylePtrArray@@QAEXHHH@Z @2147 NONAME
  ??4CGXStylePtrArray@@QAEABV0@ABV0@@Z @2148 NONAME
  ?Serialize@CGXStylePtrArray@@UAEXAAVCArchive@@@Z @2149 NONAME
  ??1CGXStylePtrArrayPtrArray@@UAE@XZ @2150 NONAME
  ?DeleteAt@CGXStylePtrArrayPtrArray@@QAEXHH@Z @2152 NONAME
  ?DeleteAll@CGXStylePtrArrayPtrArray@@QAEXXZ @2153 NONAME
  ?Move@CGXStylePtrArrayPtrArray@@QAEXHHH@Z @2154 NONAME
  ??4CGXStylePtrArrayPtrArray@@QAEABV0@ABV0@@Z @2155 NONAME
  ?Serialize@CGXStylePtrArrayPtrArray@@UAEXAAVCArchive@@@Z @2156 NONAME
  ??0CGXData@@QAE@XZ @2157 NONAME
  ??1CGXData@@UAE@XZ @2160 NONAME
  ?DeleteContents@CGXData@@UAEXXZ @2161 NONAME
  ??4CGXData@@UAEABV0@ABV0@@Z @2162 NONAME
  ?InitParam@CGXData@@UAEXPAVCGXGridParam@@@Z @2163 NONAME
  ?Serialize@CGXData@@UAEXAAVCArchive@@@Z @2164 NONAME
  ?GetRowCount@CGXData@@UAEKXZ @2165 NONAME
  ?GetColCount@CGXData@@UAEKXZ @2166 NONAME
  ?StoreRowCount@CGXData@@UAEHK@Z @2167 NONAME
  ?StoreColCount@CGXData@@UAEHK@Z @2168 NONAME
  ?StoreInsertRows@CGXData@@UAEHKK@Z @2169 NONAME
  ?StoreInsertCols@CGXData@@UAEHKK@Z @2170 NONAME
  ?StoreRemoveRows@CGXData@@UAEHKK@Z @2171 NONAME
  ?StoreRemoveCols@CGXData@@UAEHKK@Z @2172 NONAME
  ?StoreMoveRows@CGXData@@UAEHKKK@Z @2173 NONAME
  ?StoreMoveCols@CGXData@@UAEHKKK@Z @2174 NONAME
  ?StoreCopyCells@CGXData@@UAEHVCGXRange@@KK@Z @2175 NONAME
  ?StoreMoveCells@CGXData@@UAEHVCGXRange@@KKAAPAVCObject@@HH@Z @2176 NONAME
  ?StoreStyleRowCol@CGXData@@UAEHKKPBVCGXStyle@@W4GXModifyType@@H@Z @2177 NONAME
  ?GetStyleRowCol@CGXData@@UAEHKKAAVCGXStyle@@W4GXModifyType@@H@Z @2178 NONAME
  ?StoreValueRowCol@CGXData@@QAEHKKPBDW4GXModifyType@@HPAVCGXStyle@@@Z @2179 NONAME
  ?GetValueRowCol@CGXData@@QAEPBDKKHPAVCGXStyle@@@Z @2180 NONAME
  ?StoreMoveDataRows@CGXData@@UAEHABVCGXRange@@ABVCDWordArray@@@Z @2181 NONAME
  ?StoreMoveDataCols@CGXData@@UAEHABVCGXRange@@ABVCDWordArray@@@Z @2182 NONAME
  ?Grid@CGXData@@QBEPAVCGXGridCore@@XZ @2183 NONAME
  ?GetUpdateFlag@CGXData@@UAEHKK@Z @2184 NONAME
  ?SetUpdateFlag@CGXData@@UAEXKKH@Z @2185 NONAME
  ?AddRecalcRange@CGXData@@UAEXABVCGXRange@@@Z @2186 NONAME
  ?Recalc@CGXData@@UAEXH@Z @2187 NONAME
  ?ResetError@CGXData@@UAEXXZ @2188 NONAME
;  ?GetError@CGXData@@UAEHAAVCString@@@Z @2189 NONAME
  ?SetAdvancedUndo@CGXData@@UAEHH@Z @2190 NONAME
  ?GetAdvancedUndoInfo@CGXData@@UAEPAVCObject@@XZ @2191 NONAME
  ?UndoAdvanced@CGXData@@UAEHPAVCObject@@HH@Z @2192 NONAME
  ?SetRangeName@CGXData@@UAEHPBDABVCGXRange@@PAVCObject@@@Z @2193 NONAME
  ?GetRangeName@CGXData@@UAEHPBDAAVCGXRange@@@Z @2194 NONAME
  ?DeleteRangeName@CGXData@@UAEHPBDAAPAVCObject@@H@Z @2195 NONAME
;  ?GetValueType@CGXStyle@@QBEIXZ @2201 NONAME
;  ??0CGXStylePtrArray@@QAE@ABV0@@Z @2209 NONAME
;  ?InsertAt@CGXStylePtrArray@@QAEXHPAVCGXStyle@@H@Z @2213 NONAME
;  ??0CGXStylePtrArrayPtrArray@@QAE@XZ @2214 NONAME
;  ?SetAt@CGXStylePtrArrayPtrArray@@QAEXHPAVCGXStylePtrArray@@@Z @2217 NONAME
;  ?InsertAt@CGXStylePtrArrayPtrArray@@QAEXHPAVCGXStylePtrArray@@H@Z @2219 NONAME
;  ?GXDeval@@YGHPBDPANPAI2@Z @2220 NONAME

;----------------  .\objs\ogmsasd\gxdib.obj  ----------------

  ?CreateObject@CGXDIB@@SGPAVCObject@@XZ @2223 NONAME
  ?GetRuntimeClass@CGXDIB@@UBEPAUCRuntimeClass@@XZ @2225 NONAME
  ?GetRuntimeClass@CGXDIBPool@@UBEPAUCRuntimeClass@@XZ @2227 NONAME
  ??0GX_DIB_STATE@@QAE@XZ @2228 NONAME
  ??1GX_DIB_STATE@@QAE@XZ @2229 NONAME
  ?GetPool@GX_DIB_STATE@@QAEPAVCGXDIBPool@@XZ @2230 NONAME
  ??0CGXDIB@@QAE@XZ @2231 NONAME
  ??1CGXDIB@@UAE@XZ @2234 NONAME
  ?DestroyDIB@CGXDIB@@QAEXXZ @2235 NONAME
  ?Attach@CGXDIB@@QAEHPAX@Z @2236 NONAME
  ?Detach@CGXDIB@@QAEPAXXZ @2237 NONAME
  ?LoadDIB@CGXDIB@@QAEHPBD@Z @2238 NONAME
  ?Draw@CGXDIB@@QAEXPAVCDC@@PAUtagRECT@@HI1@Z @2239 NONAME
  ?Draw@CGXDIB@@SGXPAVCDC@@PAXPAUtagRECT@@HI2@Z @2240 NONAME
  ??0CGXDIBPool@@QAE@XZ @2241 NONAME
  ??1CGXDIBPool@@UAE@XZ @2244 NONAME
;  ?LookupOrCreateDIB@CGXDIBPool@@UAEPAXABVCString@@@Z @2245 NONAME
  ?EmptyPool@CGXDIBPool@@QAEXXZ @2246 NONAME
;  ?GetResourceString@CGXDIBPool@@UAEPBDABVCString@@AAV2@@Z @2247 NONAME
;  ?CreateValueString@CGXDIBPool@@UAEXIAAVCString@@@Z @2249 NONAME
;  ?CreateValueString@CGXDIBPool@@UAEXABVCString@@AAV2@@Z @2250 NONAME
;  ?LoadDIB@CGXDIBPool@@UAEPAXABVCString@@PBD@Z @2251 NONAME

;----------------  .\objs\ogmsasd\Gxdrawx.obj  ----------------

  ?_gxnPatternCount@@3HA @2252 NONAME
  ??1CGXDrawingAndFormatting@@UAE@XZ @2253 NONAME
  ?GXDaFTools@@YGPAVCGXDrawingAndFormatting@@XZ @2256 NONAME
;  ??0CGXDrawingAndFormatting@@QAE@XZ @2257 NONAME
  ?GXSetDaFTools@@YGXPAVCGXDrawingAndFormatting@@@Z @2258 NONAME
  ?GXDeval@CGXDrawingAndFormatting@@UAEHPBDPANPAI2@Z @2259 NONAME
;  ?GXFormatText@CGXDrawingAndFormatting@@UAE?AVCString@@ABVCGXStyle@@PBDIPAVCGXGridCore@@PAVCGXControl@@@Z @2260 NONAME
  ?GXLoadResourceBitmap@@YGPAXPAUHINSTANCE__@@PBD@Z @2261 NONAME
;  ?UnlockResource@@YGHPAX@Z @2262 NONAME
  ?GXLoadResourceBitmap@@YGPAXPBD@Z @2263 NONAME
  ?GXGetNumDIBColorEntries@@YGKPAUtagBITMAPINFO@@@Z @2264 NONAME
  ?GXDrawTransparentBitmap@@YGXPAVCDC@@PAVCBitmap@@HHK@Z @2265 NONAME
  ?GXLoadSysColorBitmap@@YGHAAVCBitmap@@PBD@Z @2266 NONAME
  ?GXGetPatternBitmap@CGXDrawingAndFormatting@@UAEPBVCBitmap@@H@Z @2267 NONAME
  ?GXFindColor@@YGHK@Z @2268 NONAME
  ?GXGetVGAColor@@YGKH@Z @2269 NONAME
  ?GXInvertRect@@YGXPAVCDC@@ABVCRect@@1@Z @2270 NONAME
  ?GXPatB@@YGXPAVCDC@@HHHHK@Z @2271 NONAME
  ?GXPatB@@YGXPAVCDC@@ABVCRect@@K@Z @2272 NONAME
  ?GXDrawInset@@YGXPAVCDC@@HHHHK@Z @2273 NONAME
  ?GXDrawButton@@YGXPAVCDC@@HHHHHK@Z @2274 NONAME
  ?GXDrawBlankButton@@YGXPAVCDC@@HHHHH@Z @2275 NONAME
  ?GXDrawPushButton@@YGXPAVCDC@@HHHHIPBD@Z @2276 NONAME
  ?GXDrawFocusText@CGXDrawingAndFormatting@@UAEXPAVCDC@@VCRect@@HPBDI@Z @2277 NONAME
  ?GXDrawEdge@@YGXPAVCDC@@VCRect@@IH@Z @2278 NONAME
  ?GXDraw3dFrame@@YGXPAVCDC@@ABVCRect@@HKK@Z @2279 NONAME
  ?GXDraw3dFrame@CGXDrawingAndFormatting@@UAEXPAVCDC@@HHHHHKK@Z @2280 NONAME
  ?GXComputeLineBreaks@CGXDrawingAndFormatting@@UAEHPAVCDC@@PBDHPAUtagRECT@@IPAH3H@Z @2281 NONAME
  ?GXGetMultiLineTextBreakCount@CGXDrawingAndFormatting@@UAEHPAVCDC@@PBDHVCRect@@I@Z @2284 NONAME
  ?GXDrawTextLikeMultiLineEdit@CGXDrawingAndFormatting@@UAEHPAVCDC@@PBDHVCRect@@IPAUtagRECT@@@Z @2285 NONAME
  ?GXDrawRotatedText@CGXDrawingAndFormatting@@UAEHPAVCDC@@PBDHVCRect@@IJPAUtagRECT@@@Z @2286 NONAME
  ?GXGetMultiLineTextPosUnderPt@CGXDrawingAndFormatting@@UAEHPAVCDC@@PBDHVCRect@@IVCPoint@@@Z @2287 NONAME
;  ?GXGetNextLine@@YGHAAVCString@@0@Z @2289 NONAME
  ?GXGetColString@@YGXPBDHPADH@Z @2290 NONAME
;  ?GXFindChoiceListItem@@YGHABVCString@@H0HAAV1@H@Z @2291 NONAME
;  ?GXSortChoiceList@@YGXAAVCString@@HH@Z @2294 NONAME
  ?_GXDrawSunkenBorders@CGXDrawingAndFormatting@@UAEXPAVCDC@@AAVCRect@@HH@Z @2296 NONAME
  ?DrawStatic@CGXDrawingAndFormatting@@UAEXPAVCGXControl@@PAVCDC@@VCRect@@KKABVCGXStyle@@PBV5@@Z @2297 NONAME

;----------------  .\objs\ogmsasd\gxdrgwnd.obj  ----------------

  ??0CGXDragLineWnd@@QAE@PAVCGXGridCore@@@Z @2325 NONAME
;  ??1CGXDragLineWnd@@UAE@XZ @2328 NONAME
  ?CreateWnd@CGXDragLineWnd@@QAEHPAVCWnd@@@Z @2329 NONAME
  ?GetMessageMap@CGXDragLineWnd@@MBEPBUAFX_MSGMAP@@XZ @2331 NONAME
  ?OnPaint@CGXDragLineWnd@@IAEXXZ @2332 NONAME

;----------------  .\objs\ogmsasd\gxdxtext.obj  ----------------

  ?ImplementTextDataExchange@CGXGridCore@@QAEXXZ @2334 NONAME
;  ??0CGXGridTextDataExchangeImp@@QAE@XZ @2335 NONAME

;  ??0CGXAbstractGridTextDataExchangeImp@@QAE@XZ @2337 NONAME

  ?CopyTextToFile@CGXGridTextDataExchangeImp@@UAEHPAVCGXGridCore@@AAVCFile@@ABVCGXRangeList@@@Z @2339 NONAME

;  ?GetCopyTextRowCol@CGXGridTextDataExchangeImp@@UAE?AVCString@@PAVCGXGridCore@@KK@Z @2340 NONAME

  ?PasteTextFromBuffer@CGXGridTextDataExchangeImp@@UAEHPAVCGXGridCore@@PBDKABVCGXRange@@@Z @2341 NONAME
;  ?PasteTextRowCol@CGXGridTextDataExchangeImp@@UAEHPAVCGXGridCore@@KKABVCString@@IPBVCGXStyle@@@Z @2347 NONAME
  ?CalcBufferDimension@CGXGridTextDataExchangeImp@@UAEHPAVCGXGridCore@@PBDKAAK2@Z @2348 NONAME

;----------------  .\objs\ogmsasd\gxfreeze.obj  ----------------

  ?ImplementFreezeMenuHelper@CGXGridCore@@QAEXXZ @2363 NONAME
;  ??0CGXGridFreezeMenuHelperImp@@QAE@XZ @2364 NONAME

;  ??0CGXAbstractGridFreezeMenuHelperImp@@QAE@XZ @2366 NONAME

  ?CanFreezeCols@CGXGridFreezeMenuHelperImp@@UAEHPAVCGXGridCore@@@Z @2368 NONAME
  ?CanUnfreezeCols@CGXGridFreezeMenuHelperImp@@UAEHPAVCGXGridCore@@@Z @2369 NONAME
  ?FreezeCols@CGXGridFreezeMenuHelperImp@@UAEXPAVCGXGridCore@@@Z @2370 NONAME
  ?UnfreezeCols@CGXGridFreezeMenuHelperImp@@UAEXPAVCGXGridCore@@@Z @2371 NONAME
  ?CanFreezeRows@CGXGridFreezeMenuHelperImp@@UAEHPAVCGXGridCore@@@Z @2372 NONAME
  ?CanUnfreezeRows@CGXGridFreezeMenuHelperImp@@UAEHPAVCGXGridCore@@@Z @2373 NONAME
  ?FreezeRows@CGXGridFreezeMenuHelperImp@@UAEXPAVCGXGridCore@@@Z @2374 NONAME
  ?UnfreezeRows@CGXGridFreezeMenuHelperImp@@UAEXPAVCGXGridCore@@@Z @2375 NONAME

;----------------  .\objs\ogmsasd\gxgmouse.obj  ----------------

  ?EnableIntelliMouse@CGXGridCore@@QAEXXZ @2384 NONAME
  ??0CGXGridIntelliMousePlugin@@QAE@PAVCGXGridCore@@@Z @2385 NONAME
  ??1CGXGridIntelliMousePlugin@@UAE@XZ @2388 NONAME
  ?GetMessageMap@CGXGridIntelliMousePlugin@@MBEPBUAFX_MSGMAP@@XZ @2390 NONAME
  ?OnIMouseGetZoom@CGXGridIntelliMousePlugin@@UAEHXZ @2391 NONAME
  ?OnIMouseSetZoom@CGXGridIntelliMousePlugin@@UAEXH@Z @2392 NONAME
  ?OnIMouseVScroll@CGXGridIntelliMousePlugin@@UAEXII@Z @2393 NONAME
  ?OnIMouseHScroll@CGXGridIntelliMousePlugin@@UAEXII@Z @2394 NONAME

;----------------  .\objs\ogmsasd\gxgmousw.obj  ----------------

  ?EnableMouseWheel@CGXGridCore@@QAEXXZ @2397 NONAME
  ??0CGXGridMouseWheelPlugin@@QAE@PAVCGXGridCore@@@Z @2398 NONAME
  ??1CGXGridMouseWheelPlugin@@UAE@XZ @2401 NONAME
  ?GetMessageMap@CGXGridMouseWheelPlugin@@MBEPBUAFX_MSGMAP@@XZ @2403 NONAME
  ?OnIMouseGetZoom@CGXGridMouseWheelPlugin@@UAEHXZ @2404 NONAME
  ?OnIMouseSetZoom@CGXGridMouseWheelPlugin@@UAEXH@Z @2405 NONAME

;----------------  .\objs\ogmsasd\gxgscrlt.obj  ----------------

  ??0CGXScrollTipPlugin@@QAE@PAVCGXGridCore@@@Z @2408 NONAME
  ??1CGXScrollTipPlugin@@UAE@XZ @2411 NONAME
  ?GetMessageMap@CGXScrollTipPlugin@@MBEPBUAFX_MSGMAP@@XZ @2413 NONAME
  ?OnVScroll@CGXScrollTipPlugin@@IAEXIIPAVCScrollBar@@@Z @2414 NONAME
  ?OnHScroll@CGXScrollTipPlugin@@IAEXIIPAVCScrollBar@@@Z @2415 NONAME
  ?EnableScrollTips@CGXGridCore@@QAEXXZ @2416 NONAME

;----------------  .\objs\ogmsasd\gxhide.obj  ----------------

  ?ImplementHideCells@CGXGridCore@@QAEXXZ @2417 NONAME
;  ??0CGXGridHideCellsImp@@QAE@XZ @2418 NONAME

;  ??0CGXAbstractGridHideCellsImp@@QAE@XZ @2420 NONAME

  ?RemoveRows@CGXGridHideCellsImp@@UAEXPAVCGXGridCore@@KK@Z @2422 NONAME
  ?RemoveCols@CGXGridHideCellsImp@@UAEXPAVCGXGridCore@@KK@Z @2423 NONAME
  ?InsertRows@CGXGridHideCellsImp@@UAEXPAVCGXGridCore@@KK@Z @2424 NONAME
  ?InsertCols@CGXGridHideCellsImp@@UAEXPAVCGXGridCore@@KK@Z @2425 NONAME
  ?MoveRows@CGXGridHideCellsImp@@UAEXPAVCGXGridCore@@KKK@Z @2426 NONAME
  ?MoveCols@CGXGridHideCellsImp@@UAEXPAVCGXGridCore@@KKK@Z @2427 NONAME
  ?HideRows@CGXGridHideCellsImp@@UAEHPAVCGXGridCore@@KKHPAHIW4GXCmdType@@@Z @2428 NONAME
  ?IsRowHidden@CGXGridHideCellsImp@@UAEHPAVCGXGridCore@@K@Z @2429 NONAME
  ?StoreHideRow@CGXGridHideCellsImp@@UAEHPAVCGXGridCore@@KH@Z @2430 NONAME
  ?HideCols@CGXGridHideCellsImp@@UAEHPAVCGXGridCore@@KKHPAHIW4GXCmdType@@@Z @2431 NONAME
  ?IsColHidden@CGXGridHideCellsImp@@UAEHPAVCGXGridCore@@K@Z @2432 NONAME
  ?StoreHideCol@CGXGridHideCellsImp@@UAEHPAVCGXGridCore@@KH@Z @2433 NONAME
  ?SetBitAt@CGXBitArray@@QAEHKH@Z @2434 NONAME
  ?GetBitAt@CGXBitArray@@QAEHK@Z @2435 NONAME
  ?RemoveBits@CGXBitArray@@QAEXKK@Z @2436 NONAME
  ?MoveBits@CGXBitArray@@QAEXKKK@Z @2437 NONAME
  ?InsertBits@CGXBitArray@@QAEXKK@Z @2438 NONAME
;  ?GetDisplayRowHeaders@CGXProperties@@QBEHXZ @2441 NONAME
;  ?GetDisplayColHeaders@CGXProperties@@QBEHXZ @2443 NONAME

;----------------  .\objs\ogmsasd\GXHINT.obj  ----------------

  ?GetRuntimeClass@CGXGridHint@@UBEPAUCRuntimeClass@@XZ @2446 NONAME
  ??0CGXGridHint@@QAE@IH@Z @2447 NONAME
  ??1CGXGridHint@@UAE@XZ @2450 NONAME
  ?AssertValid@CGXGridHint@@UBEXXZ @2451 NONAME
;  ?Dump@CGXGridHint@@UBEXAAVCDumpContext@@@Z @2452 NONAME

;----------------  .\objs\ogmsasd\gxhinti.obj  ----------------

  ?ImplementUpdateHint@CGXGridCore@@QAEXXZ @2453 NONAME
;  ??0CGXGridUpdateHintImp@@QAE@XZ @2454 NONAME

;  ??0CGXAbstractGridUpdateHintImp@@QAE@XZ @2456 NONAME

  ?OnGridUpdate@CGXGridUpdateHintImp@@UAEXPAVCGXGridCore@@PAVCObject@@@Z @2458 NONAME
  ?HintUpdateReadOnly@CGXGridUpdateHintImp@@UAEXPAVCGXGridCore@@H@Z @2459 NONAME
  ?HintSetCurrentCell@CGXGridUpdateHintImp@@UAEXPAVCGXGridCore@@KKI@Z @2461 NONAME
  ?HintTransferCurrentCell@CGXGridUpdateHintImp@@UAEHPAVCGXGridCore@@HI@Z @2462 NONAME
  ?HintUpdateChangedRowCount@CGXGridUpdateHintImp@@UAEXPAVCGXGridCore@@KI@Z @2463 NONAME
  ?HintUpdateChangedColCount@CGXGridUpdateHintImp@@UAEXPAVCGXGridCore@@KI@Z @2464 NONAME
  ?HintUpdateFrozenCols@CGXGridUpdateHintImp@@UAEXPAVCGXGridCore@@KKI@Z @2465 NONAME
  ?HintUpdateFrozenRows@CGXGridUpdateHintImp@@UAEXPAVCGXGridCore@@KKI@Z @2466 NONAME
  ?HintSetTopRow@CGXGridUpdateHintImp@@UAEXPAVCGXGridCore@@KI@Z @2467 NONAME
  ?HintSetLeftCol@CGXGridUpdateHintImp@@UAEXPAVCGXGridCore@@KI@Z @2468 NONAME
  ?HintUpdateInsertRows@CGXGridUpdateHintImp@@UAEXPAVCGXGridCore@@KKI@Z @2469 NONAME
  ?HintUpdateInsertCols@CGXGridUpdateHintImp@@UAEXPAVCGXGridCore@@KKI@Z @2470 NONAME
  ?HintRedrawRowCol@CGXGridUpdateHintImp@@UAEXPAVCGXGridCore@@KKKKI@Z @2471 NONAME
  ?HintRedraw@CGXGridUpdateHintImp@@UAEXPAVCGXGridCore@@I@Z @2472 NONAME
;  ?HintRefreshViews@CGXGridUpdateHintImp@@UAEXPAVCGXGridCore@@PAVCString@@@Z @2473 NONAME
  ?HintOnTabChanged@CGXGridUpdateHintImp@@UAEXPAVCGXGridCore@@H@Z @2474 NONAME
  ?HintOnAutoScroll@CGXGridUpdateHintImp@@UAEXPAVCGXGridCore@@HK@Z @2475 NONAME
  ?HintUpdateSelectRange@CGXGridUpdateHintImp@@UAEXPAVCGXGridCore@@ABVCGXRange@@PBVCGXRangeList@@@Z @2476 NONAME
  ?HintLockSelectionFrame@CGXGridUpdateHintImp@@UAEXPAVCGXGridCore@@H@Z @2477 NONAME
  ?HintPrepareChangeSelection@CGXGridUpdateHintImp@@UAEXPAVCGXGridCore@@PAU__POSITION@@KKKK@Z @2478 NONAME
  ?HintPrepareClearSelection@CGXGridUpdateHintImp@@UAEXPAVCGXGridCore@@@Z @2479 NONAME
  ?HintUpdateChangedRowHeights@CGXGridUpdateHintImp@@UAEXPAVCGXGridCore@@KKPAHI@Z @2480 NONAME
  ?HintUpdateChangedColWidths@CGXGridUpdateHintImp@@UAEXPAVCGXGridCore@@KKPAHI@Z @2481 NONAME
  ?HintStoreZoom@CGXGridUpdateHintImp@@UAEXPAVCGXGridCore@@H@Z @2482 NONAME
  ?HintUpdateZoom@CGXGridUpdateHintImp@@UAEXPAVCGXGridCore@@HI@Z @2483 NONAME
  ?HintUpdateStyleRange@CGXGridUpdateHintImp@@UAEXPAVCGXGridCore@@ABVCGXRange@@PBVCGXStyle@@W4GXModifyType@@HI@Z @2484 NONAME
  ?HintUpdateStylesMap@CGXGridUpdateHintImp@@UAEXPAVCGXGridCore@@I@Z @2485 NONAME
  ?HintUpdateProperties@CGXGridUpdateHintImp@@UAEXPAVCGXGridCore@@I@Z @2486 NONAME
  ?HintUpdateBaseStyle@CGXGridUpdateHintImp@@UAEXPAVCGXGridCore@@GI@Z @2487 NONAME
  ?HintUpdateCoveredCellsRowCol@CGXGridUpdateHintImp@@UAEXPAVCGXGridCore@@KKKKI@Z @2488 NONAME
  ?HintUpdateFloatedCellsRowCol@CGXGridUpdateHintImp@@UAEXPAVCGXGridCore@@KKKKI@Z @2489 NONAME
  ?HintUpdateMergedCellsRowCol@CGXGridUpdateHintImp@@UAEXPAVCGXGridCore@@KKKKI@Z @2490 NONAME
  ?HintUpdateMoveDataRows@CGXGridUpdateHintImp@@UAEXPAVCGXGridCore@@ABVCGXRange@@I@Z @2491 NONAME
  ?HintUpdateMoveDataCols@CGXGridUpdateHintImp@@UAEXPAVCGXGridCore@@ABVCGXRange@@I@Z @2492 NONAME
  ?HintUpdateRemoveRows@CGXGridUpdateHintImp@@UAEXPAVCGXGridCore@@KKPAHI@Z @2493 NONAME
  ?HintUpdateRemoveCols@CGXGridUpdateHintImp@@UAEXPAVCGXGridCore@@KKPAHI@Z @2494 NONAME
  ?HintUpdateMoveRows@CGXGridUpdateHintImp@@UAEXPAVCGXGridCore@@KKKI@Z @2495 NONAME
  ?HintUpdateMoveCols@CGXGridUpdateHintImp@@UAEXPAVCGXGridCore@@KKKI@Z @2496 NONAME

;----------------  .\objs\ogmsasd\gximouse.obj  ----------------

;  ??0?$CGXProcessLocal@UGX_INTELLI_STATE@@@@QAE@XZ @2507 NONAME
;  ??0?$CTypedPtrMap@VCMapPtrToPtr@@PAVAFX_MODULE_STATE@@PAUGX_INTELLI_STATE@@@@QAE@H@Z @2508 NONAME
;  ??1?$CGXProcessLocal@UGX_INTELLI_STATE@@@@QAE@XZ @2510 NONAME 20.11.2017
;  ?GetNextAssoc@?$CTypedPtrMap@VCMapPtrToPtr@@PAVAFX_MODULE_STATE@@PAUGX_INTELLI_STATE@@@@QBEXAAPAU__POSITION@@AAPAVAFX_MODULE_STATE@@AAPAUGX_INTELLI_STATE@@@Z @2511 NONAME
;  ??1?$CTypedPtrMap@VCMapPtrToPtr@@PAVAFX_MODULE_STATE@@PAUGX_INTELLI_STATE@@@@UAE@XZ @2513 NONAME
  ??0GX_INTELLI_STATE@@QAE@XZ @2514 NONAME
;  ??1GX_INTELLI_STATE@@UAE@XZ @2519 NONAME
  ?GetRuntimeClass@CGXMouseWheelOriginWnd@@UBEPAUCRuntimeClass@@XZ @2521 NONAME
  ??0CGXMouseWheelOriginWnd@@QAE@XZ @2522 NONAME
;  ??1CGXMouseWheelOriginWnd@@UAE@XZ @2525 NONAME
  ?CreateWnd@CGXMouseWheelOriginWnd@@QAEHPAVCWnd@@ABVCRect@@I@Z @2526 NONAME
  ?GetMessageMap@CGXMouseWheelOriginWnd@@MBEPBUAFX_MSGMAP@@XZ @2528 NONAME
  ?DrawTransparentBitmap@CGXMouseWheelOriginWnd@@SGXPAVCDC@@PAVCBitmap@@HHK@Z @2529 NONAME
  ?OnPaint@CGXMouseWheelOriginWnd@@IAEXXZ @2530 NONAME
  ?GetRuntimeClass@CGXIntelliMousePlugin@@UBEPAUCRuntimeClass@@XZ @2532 NONAME
  ?GetMessageMap@CGXIntelliMousePlugin@@MBEPBUAFX_MSGMAP@@XZ @2534 NONAME
  ??0CGXIntelliMousePlugin@@QAE@XZ @2535 NONAME
  ??1CGXIntelliMousePlugin@@UAE@XZ @2540 NONAME
  ?AssertValid@CGXIntelliMousePlugin@@UBEXXZ @2541 NONAME
;  ?Dump@CGXIntelliMousePlugin@@UBEXAAVCDumpContext@@@Z @2542 NONAME
  ?OnMouseWheel@CGXIntelliMousePlugin@@IAEHIFVCPoint@@@Z @2543 NONAME
  ?OnMButtonDown@CGXIntelliMousePlugin@@IAEXIVCPoint@@@Z @2544 NONAME
  ?OnMouseMove@CGXIntelliMousePlugin@@IAEXIVCPoint@@@Z @2545 NONAME
  ?OnSetCursor@CGXIntelliMousePlugin@@IAEHPAVCWnd@@II@Z @2546 NONAME
  ?OnMButtonUp@CGXIntelliMousePlugin@@IAEXIVCPoint@@@Z @2547 NONAME
;  ??C?$CGXProcessLocal@UGX_INTELLI_STATE@@@@QAEPAUGX_INTELLI_STATE@@XZ @2548 NONAME
;  ?GetData@?$CGXProcessLocal@UGX_INTELLI_STATE@@@@QAEPAUGX_INTELLI_STATE@@XZ @2549 NONAME 20.11.2017
;  ?Lookup@?$CTypedPtrMap@VCMapPtrToPtr@@PAVAFX_MODULE_STATE@@PAUGX_INTELLI_STATE@@@@QBEHPAXAAPAUGX_INTELLI_STATE@@@Z @2551 NONAME
;  ?SetAt@?$CTypedPtrMap@VCMapPtrToPtr@@PAVAFX_MODULE_STATE@@PAUGX_INTELLI_STATE@@@@QAEXPAVAFX_MODULE_STATE@@PAUGX_INTELLI_STATE@@@Z @2552 NONAME
  ?CreateObject@?$CGXProcessLocal@UGX_INTELLI_STATE@@@@SGPAVCNoTrackObject@@XZ @2553 NONAME
  ?GetData@?$CGXProcessLocal@UGX_INTELLI_STATE@@@@QAEPAVCNoTrackObject@@P6GPAV2@XZ@Z @2554 NONAME
  ?OnLButtonDown@CGXIntelliMousePlugin@@IAEXIVCPoint@@@Z @2557 NONAME
  ?OnRButtonDown@CGXIntelliMousePlugin@@IAEXIVCPoint@@@Z @2558 NONAME
  ?OnCancelMode@CGXIntelliMousePlugin@@IAEXXZ @2559 NONAME
  ?KillMouseWheel@CGXIntelliMousePlugin@@QAEXVCPoint@@@Z @2560 NONAME
  ?SaveBackground@CGXIntelliMousePlugin@@QAEXABVCRect@@@Z @2561 NONAME
  ?RestoreBackground@CGXIntelliMousePlugin@@QAEXXZ @2562 NONAME
  ?HideOriginWnd@CGXIntelliMousePlugin@@QAEXXZ @2563 NONAME
  ?ShowOriginWnd@CGXIntelliMousePlugin@@QAEXXZ @2564 NONAME
  ?OnTimer@CGXIntelliMousePlugin@@IAEXI@Z @2565 NONAME
  ?SetImouseCursor@CGXIntelliMousePlugin@@QAEXI@Z @2566 NONAME
  ?ShowImouseCursor@CGXIntelliMousePlugin@@QAEHI@Z @2567 NONAME

;----------------  .\objs\ogmsasd\gximousw.obj  ----------------

  ?GXGetMouseScrollLines@@YGIH@Z @2571 NONAME
  ?GetRuntimeClass@CGXMouseWheelPlugin@@UBEPAUCRuntimeClass@@XZ @2573 NONAME
  ?GetMessageMap@CGXMouseWheelPlugin@@MBEPBUAFX_MSGMAP@@XZ @2575 NONAME
  ??0CGXMouseWheelPlugin@@QAE@XZ @2576 NONAME
  ??1CGXMouseWheelPlugin@@UAE@XZ @2579 NONAME
  ?AssertValid@CGXMouseWheelPlugin@@UBEXXZ @2580 NONAME
;  ?Dump@CGXMouseWheelPlugin@@UBEXAAVCDumpContext@@@Z @2581 NONAME
  ?OnMouseWheel@CGXMouseWheelPlugin@@IAEHIFVCPoint@@@Z @2582 NONAME
  ?OnSettingChange@CGXMouseWheelPlugin@@IAEJIJ@Z @2583 NONAME
  ?OnIMouseGetZoom@CGXMouseWheelPlugin@@UAEHXZ @2584 NONAME
  ?OnIMouseSetZoom@CGXMouseWheelPlugin@@UAEXH@Z @2585 NONAME
  ?OnIMouseVScroll@CGXMouseWheelPlugin@@UAEXII@Z @2586 NONAME
  ?OnIMouseHScroll@CGXMouseWheelPlugin@@UAEXII@Z @2587 NONAME

;----------------  .\objs\ogmsasd\gxinl.obj  ----------------


;----------------  .\objs\ogmsasd\gxmarked.obj  ----------------

  ?ImplementMarkEditHeader@CGXGridCore@@QAEXXZ @2588 NONAME
;  ??0CGXGridMarkEditHeaderImp@@QAE@XZ @2589 NONAME

;  ??0CGXAbstractGridMarkEditHeaderImp@@QAE@XZ @2591 NONAME

  ?MarkEdit@CGXGridMarkEditHeaderImp@@UAEXPAVCGXGridCore@@KKII@Z @2593 NONAME
  ?GetMarkHeaderState@CGXGridMarkEditHeaderImp@@UAEHPAVCGXControl@@KKABVCGXStyle@@@Z @2594 NONAME
;  ?GetMarkRowHeader@CGXProperties@@QBEHXZ @2603 NONAME
;  ?GetMarkColHeader@CGXProperties@@QBEHXZ @2604 NONAME

;----------------  .\objs\ogmsasd\gxmoverc.obj  ----------------

  ?ImplementMoveRowsCols@CGXGridCore@@QAEXXZ @2607 NONAME
;  ??0CGXGridMoveRowsColsImp@@QAE@XZ @2608 NONAME

;  ??0CGXAbstractGridMoveRowsColsImp@@QAE@XZ @2610 NONAME

  ?StoreMoveRows@CGXGridMoveRowsColsImp@@UAEHPAVCGXGridCore@@KKKH@Z @2612 NONAME
  ?UpdateMoveRows@CGXGridMoveRowsColsImp@@UAEXPAVCGXGridCore@@KKKIH@Z @2613 NONAME
  ?StoreMoveCols@CGXGridMoveRowsColsImp@@UAEHPAVCGXGridCore@@KKKH@Z @2614 NONAME
  ?UpdateMoveCols@CGXGridMoveRowsColsImp@@UAEXPAVCGXGridCore@@KKKIH@Z @2615 NONAME
  ?MoveRows@CGXGridMoveRowsColsImp@@UAEHPAVCGXGridCore@@KKKIW4GXCmdType@@@Z @2616 NONAME
  ?MoveCols@CGXGridMoveRowsColsImp@@UAEHPAVCGXGridCore@@KKKIW4GXCmdType@@@Z @2617 NONAME

;----------------  .\objs\ogmsasd\GXPARAM.obj  ----------------

  ?CreateObject@CGXGridParam@@SGPAVCObject@@XZ @2631 NONAME
  ?GetRuntimeClass@CGXGridParam@@UBEPAUCRuntimeClass@@XZ @2633 NONAME
  ??5@YGAAVCArchive@@AAV0@AAPAVCGXGridParam@@@Z @2634 NONAME
  ??0CGXGridParam@@QAE@XZ @2635 NONAME
  ?InitCoveredCells@CGXGridParam@@QAEXXZ @2645 NONAME
  ??1CGXGridParam@@UAE@XZ @2646 NONAME
  ?UpdateCoveredCellsList@CGXGridParam@@QAEXXZ @2647 NONAME
  ?Serialize@CGXGridParam@@UAEXAAVCArchive@@@Z @2648 NONAME
  ??4CGXGridParam@@UAEAAV0@ABV0@@Z @2649 NONAME
  ?SetProperties@CGXGridParam@@QAEXPAVCGXProperties@@H@Z @2650 NONAME
  ?SetData@CGXGridParam@@QAEXPAVCGXData@@H@Z @2651 NONAME
  ?SetStylesMap@CGXGridParam@@QAEXPAVCGXStylesMap@@H@Z @2652 NONAME
  ?SetPrintDevice@CGXGridParam@@QAEXPAVCGXPrintDevice@@H@Z @2653 NONAME
  ?GetUndoList@CGXGridParam@@QAEAAVCObList@@XZ @2654 NONAME
  ?GetRedoList@CGXGridParam@@QAEAAVCObList@@XZ @2655 NONAME
  ?EmptyUndoList@CGXGridParam@@QAEXXZ @2656 NONAME
  ?EmptyRedoList@CGXGridParam@@QAEXXZ @2657 NONAME
  ?EnableSelection@CGXGridParam@@QAEXI@Z @2658 NONAME
  ?EnableMoveCols@CGXGridParam@@QAEXH@Z @2659 NONAME
  ?EnableMoveRows@CGXGridParam@@QAEXH@Z @2660 NONAME
  ?EnableTrackRowHeight@CGXGridParam@@QAEXI@Z @2661 NONAME
  ?EnableTrackColWidth@CGXGridParam@@QAEXI@Z @2662 NONAME
  ?EnableThumbTrack@CGXGridParam@@QAEXH@Z @2663 NONAME
  ?EnableAllFeatures@CGXGridParam@@QAEXH@Z @2664 NONAME
  ?SetSpecialMode@CGXGridParam@@QAEXG@Z @2665 NONAME
  ?IsEnableSelection@CGXGridParam@@QAEHG@Z @2666 NONAME
  ?IsEnableMoveCols@CGXGridParam@@QAEHXZ @2667 NONAME
  ?IsEnableMoveRows@CGXGridParam@@QAEHXZ @2668 NONAME
  ?IsEnableTrackRowHeight@CGXGridParam@@QAEHG@Z @2669 NONAME
  ?IsEnableTrackColWidth@CGXGridParam@@QAEHG@Z @2670 NONAME
  ?IsSpecialMode@CGXGridParam@@QAEHG@Z @2671 NONAME
  ?IsEnableThumbTrack@CGXGridParam@@QAEHXZ @2672 NONAME
  ?EnableUndo@CGXGridParam@@QAEXH@Z @2673 NONAME
  ?IsEnableUndo@CGXGridParam@@QAEHXZ @2674 NONAME
  ?EnableChangeTab@CGXGridParam@@QAEXH@Z @2675 NONAME
  ?IsEnableChangeTab@CGXGridParam@@QAEHXZ @2676 NONAME
  ?AssertValid@CGXGridParam@@UBEXXZ @2677 NONAME
;  ?Dump@CGXGridParam@@UBEXAAVCDumpContext@@@Z @2678 NONAME
  ?Grid@CGXGridParam@@QBEPAVCGXGridCore@@XZ @2679 NONAME

;----------------  .\objs\ogmsasd\gxplugin.obj  ----------------

  ?GetRuntimeClass@CGXPluginComponent@@UBEPAUCRuntimeClass@@XZ @2684 NONAME
  ??0CGXPluginComponent@@QAE@XZ @2685 NONAME
  ??1CGXPluginComponent@@UAE@XZ @2688 NONAME
  ?GetMessageMap@CGXPluginComponent@@MBEPBUAFX_MSGMAP@@XZ @2690 NONAME
  ?PlugIn@CGXPluginComponent@@UAEHPAVCWnd@@@Z @2691 NONAME
  ?HandleMessage@CGXPluginComponent@@QAEHIIJPAJ@Z @2692 NONAME
  ?DefWindowProcA@CGXPluginComponent@@MAEJIIJ@Z @2693 NONAME
  ?AssertValid@CGXPluginComponent@@MBEXXZ @2694 NONAME
;  ?Dump@CGXPluginComponent@@MBEXAAVCDumpContext@@@Z @2695 NONAME

;----------------  .\objs\ogmsasd\GXPRNDEV.obj  ----------------

  ?CreateObject@CGXPrintDevice@@SGPAVCObject@@XZ @2697 NONAME
  ?GetRuntimeClass@CGXPrintDevice@@UBEPAUCRuntimeClass@@XZ @2699 NONAME
  ??5@YGAAVCArchive@@AAV0@AAPAVCGXPrintDevice@@@Z @2700 NONAME
  ??0CGXPrintDevice@@QAE@XZ @2701 NONAME
  ??1CGXPrintDevice@@UAE@XZ @2704 NONAME
  ??0CGXPrintDevice@@QAE@ABV0@@Z @2705 NONAME
  ??4CGXPrintDevice@@QAEAAV0@ABV0@@Z @2706 NONAME
  ?Serialize@CGXPrintDevice@@UAEXAAVCArchive@@@Z @2707 NONAME
  ?AssertValid@CGXPrintDevice@@UBEXXZ @2708 NONAME
;  ?Dump@CGXPrintDevice@@UBEXAAVCDumpContext@@@Z @2709 NONAME
  ?CreateDeviceHandles@CGXPrintDevice@@QAEXPAUtagDEVNAMES@@KPAU_devicemodeA@@K@Z @2710 NONAME
  ?CreateDeviceHandles@CGXPrintDevice@@QAEXPAX0@Z @2711 NONAME
  ?DestroyDeviceHandles@CGXPrintDevice@@QAEXXZ @2712 NONAME
  ?GetDeviceInfo@CGXPrintDevice@@QAEXPAX0AAPAUtagDEVNAMES@@AAKAAPAU_devicemodeA@@2@Z @2713 NONAME
  ?GetDeviceInfo@CGXPrintDevice@@QAEXAAPAUtagDEVNAMES@@AAKAAPAU_devicemodeA@@1@Z @2714 NONAME
  ?GetDefaults@CGXPrintDevice@@QAEXXZ @2715 NONAME
  ?NeedDeviceHandles@CGXPrintDevice@@QAEXXZ @2716 NONAME
  ?GetPrintDC@CGXPrintDevice@@UAEPAUHDC__@@XZ @2717 NONAME
  ?ResetPrintDC@CGXPrintDevice@@UAEXXZ @2718 NONAME
  ?CopyDeviceHandles@CGXPrintDevice@@QAEXAAPAX0@Z @2719 NONAME
  ?CompareDeviceHandles@CGXPrintDevice@@QAEHPAUtagDEVNAMES@@KPAU_devicemodeA@@K@Z @2720 NONAME
  ?CompareDeviceHandles@CGXPrintDevice@@QAEHPAX0@Z @2721 NONAME

;----------------  .\objs\ogmsasd\gxprof.obj  ----------------

  ?ImplementProfile@CGXStyle@@SGXXZ @2722 NONAME
;  ??0CGXGridProfileImp@@QAE@XZ @2723 NONAME

;  ??0CGXAbstractGridProfileImp@@QAE@XZ @2725 NONAME

  ?GXWriteProfileLong@@YGXPBD0J@Z @2727 NONAME
  ?GXGetProfileLong@@YGJPBD0J@Z @2728 NONAME
  ?WriteProfile@CGXGridProfileImp@@UAEXPBVCGXProperties@@@Z @2729 NONAME
  ?ReadProfile@CGXGridProfileImp@@UAEHPAVCGXProperties@@@Z @2730 NONAME
  ?WriteProfile@CGXGridProfileImp@@UAEXPBVCGXStyle@@PBDPBVCGXStylesMap@@@Z @2733 NONAME
  ?ReadProfile@CGXGridProfileImp@@UAEHPAVCGXStyle@@PBDPBVCGXStylesMap@@@Z @2734 NONAME
  ?WriteProfile@CGXGridProfileImp@@UAEXPBVCGXFont@@PBD1@Z @2735 NONAME
  ?ReadProfile@CGXGridProfileImp@@UAEHPAVCGXFont@@PBD1@Z @2736 NONAME
  ?WriteProfile@CGXGridProfileImp@@UAEXPBVCGXStylesMap@@@Z @2737 NONAME
  ?ReadProfile@CGXGridProfileImp@@UAEHPAVCGXStylesMap@@@Z @2738 NONAME
;  ?SetMaxLength@CGXStyle@@QAEAAV1@G@Z @2757 NONAME
;  ?SetIncludeMaxLength@CGXStyle@@QAEAAV1@H@Z @2758 NONAME
;  ?SetVertScrollBar@CGXStyle@@QAEAAV1@H@Z @2760 NONAME
;  ?SetIncludeVertScrollBar@CGXStyle@@QAEAAV1@H@Z @2761 NONAME
  ?GetInterior@CGXStyle@@QBE?AUCGXBrush@@XZ @2763 NONAME
  ?GetTextColorNA@CGXStyle@@QBEKXZ @2774 NONAME
  ?SetTextColor@CGXStyle@@QAEAAV1@K@Z @2775 NONAME
;  ?SetIncludeTextColor@CGXStyle@@QAEAAV1@H@Z @2776 NONAME
;  ?SetAllowEnter@CGXStyle@@QAEAAV1@H@Z @2784 NONAME
;  ?SetIncludeAllowEnter@CGXStyle@@QAEAAV1@H@Z @2785 NONAME
;  ?GetIncludeFloatCell@CGXStyle@@QBEHXZ @2786 NONAME
;  ?SetFloatCell@CGXStyle@@QAEAAV1@H@Z @2787 NONAME
;  ?SetIncludeFloatCell@CGXStyle@@QAEAAV1@H@Z @2788 NONAME
;  ?GetIncludeFloodCell@CGXStyle@@QBEHXZ @2789 NONAME
;  ?SetFloodCell@CGXStyle@@QAEAAV1@H@Z @2790 NONAME
;  ?SetIncludeFloodCell@CGXStyle@@QAEAAV1@H@Z @2791 NONAME
;  ?GetIncludeMergeCell@CGXStyle@@QBEHXZ @2792 NONAME
;  ?SetMergeCell@CGXStyle@@QAEAAV1@I@Z @2793 NONAME
;  ?SetIncludeMergeCell@CGXStyle@@QAEAAV1@H@Z @2794 NONAME
;  ?SetFormat@CGXStyle@@QAEAAV1@I@Z @2797 NONAME
;  ?SetIncludeFormat@CGXStyle@@QAEAAV1@H@Z @2798 NONAME
;  ?GetIncludePlaces@CGXStyle@@QBEHXZ @2799 NONAME
  ?GetPlaces@CGXStyle@@QBEIXZ @2800 NONAME
;  ?SetPlaces@CGXStyle@@QAEAAV1@I@Z @2801 NONAME
;  ?SetIncludePlaces@CGXStyle@@QAEAAV1@H@Z @2802 NONAME
;  ?GetIncludeBaseStyle@CGXStyle@@QBEHXZ @2808 NONAME
  ?GetBaseStyle@CGXStyle@@QBEGXZ @2809 NONAME
  ?SetBaseStyle@CGXStyle@@QAEAAV1@G@Z @2810 NONAME
;  ?SetIncludeBaseStyle@CGXStyle@@QAEAAV1@H@Z @2811 NONAME
;  ?SetChoiceList@CGXStyle@@QAEAAV1@ABVCString@@@Z @2814 NONAME
;  ?SetIncludeChoiceList@CGXStyle@@QAEAAV1@H@Z @2815 NONAME
;  ?SetEnabled@CGXStyle@@QAEAAV1@H@Z @2817 NONAME
;  ?SetIncludeEnabled@CGXStyle@@QAEAAV1@H@Z @2818 NONAME
;  ?SetTriState@CGXStyle@@QAEAAV1@H@Z @2820 NONAME
;  ?SetIncludeTriState@CGXStyle@@QAEAAV1@H@Z @2821 NONAME
;  ?SetDraw3dFrame@CGXStyle@@QAEAAV1@W4GXDraw3dFrameType@@@Z @2823 NONAME
;  ?SetIncludeDraw3dFrame@CGXStyle@@QAEAAV1@H@Z @2824 NONAME
;  ?SetUserAttribute@CGXStyle@@QAEAAV1@GABVCString@@@Z @2825 NONAME
;  ?GetSection@CGXStylesMap@@QBEABVCString@@XZ @2826 NONAME
;  ?GetSection@CGXProperties@@QBEABVCString@@XZ @2827 NONAME

;----------------  .\objs\ogmsasd\GXPRP.obj  ----------------

	?GetThisClass@CGXProperties@@SGPAUCRuntimeClass@@XZ
  ?szDistances@CGXProperties@@2PBDB @2828 NONAME
  ?szFirstPage@CGXProperties@@2PBDB @2829 NONAME
  ?szPrintFrame@CGXProperties@@2PBDB @2830 NONAME
  ?szMargins@CGXProperties@@2PBDB @2831 NONAME
  ?szPageOrder@CGXProperties@@2PBDB @2832 NONAME
  ?szCenterHorizontal@CGXProperties@@2PBDB @2833 NONAME
  ?szCenterVertical@CGXProperties@@2PBDB @2834 NONAME
  ?szColHeaders@CGXProperties@@2PBDB @2835 NONAME
  ?szRowHeaders@CGXProperties@@2PBDB @2836 NONAME
  ?szBlackWhite@CGXProperties@@2PBDB @2837 NONAME
  ?szPrintHorzLines@CGXProperties@@2PBDB @2838 NONAME
  ?szPrintVertLines@CGXProperties@@2PBDB @2839 NONAME
  ?szDefaultSection@CGXProperties@@2PBDB @2840 NONAME
  ?szDisplayColHeader@CGXProperties@@2PBDB @2841 NONAME
  ?szDisplayRowHeader@CGXProperties@@2PBDB @2842 NONAME
  ?szDisplayHorzLines@CGXProperties@@2PBDB @2843 NONAME
  ?szDisplayVertLines@CGXProperties@@2PBDB @2844 NONAME
  ?szDisplay3DButtons@CGXProperties@@2PBDB @2845 NONAME
  ?szMarkColHeader@CGXProperties@@2PBDB @2846 NONAME
  ?szMarkRowHeader@CGXProperties@@2PBDB @2847 NONAME
  ?CreateObject@CGXProperties@@SGPAVCObject@@XZ @2849 NONAME
  ?GetRuntimeClass@CGXProperties@@UBEPAUCRuntimeClass@@XZ @2851 NONAME
  ??5@YGAAVCArchive@@AAV0@AAPAVCGXProperties@@@Z @2852 NONAME
  ??0CGXProperties@@QAE@XZ @2853 NONAME
  ?AddDefaultUserProperties@CGXProperties@@UAEXXZ @2856 NONAME
  ??0CGXProperties@@QAE@ABV0@@Z @2857 NONAME
  ??1CGXProperties@@UAE@XZ @2858 NONAME
  ?Free@CGXProperties@@IAEXXZ @2859 NONAME
  ??4CGXProperties@@QAEABV0@ABV0@@Z @2861 NONAME
  ?Serialize@CGXProperties@@UAEXAAVCArchive@@@Z @2862 NONAME
  ?AssertValid@CGXProperties@@UBEXXZ @2863 NONAME
;  ?Dump@CGXProperties@@UBEXAAVCDumpContext@@@Z @2864 NONAME
  ?WriteProfile@CGXProperties@@UBEXXZ @2865 NONAME
  ?ReadProfile@CGXProperties@@UAEHXZ @2866 NONAME
  ?AddColorProperty@CGXProperties@@QAEHPBDK@Z @2867 NONAME
  ?AddColorProperty@CGXProperties@@QAEHIK@Z @2868 NONAME
  ?GetColor@CGXProperties@@QBEKH@Z @2869 NONAME
  ?SetColor@CGXProperties@@QAEXHK@Z @2870 NONAME
  ?AddUserProperty@CGXProperties@@QAEXGABVCGXStyle@@@Z @2871 NONAME
  ?SetUserProperty@CGXProperties@@QAEXGABVCGXStyle@@@Z @2872 NONAME
  ?GetUserPropertyInfoMap@CGXProperties@@QBEABVCMapWordToPtr@@XZ @2873 NONAME
  ?GetUserProperty@CGXProperties@@QAEABVCGXStyle@@G@Z @2874 NONAME
  ??0UserPropertyInfo@CGXProperties@@QAE@ABU01@@Z @2875 NONAME
  ?OnPrintHeaderAndFooter@CGXProperties@@QAEXPAVCDC@@PAUCPrintInfo@@PAVCDocument@@PAVCGXGridParam@@@Z @2876 NONAME
  ?CalculateHeight@CGXProperties@@QAEHPAVCDC@@AAVCGXData@@PAVCGXStylesMap@@@Z @2877 NONAME
  ?PrintHeaderFooter@CGXProperties@@QAEXPAVCDC@@PAUCPrintInfo@@AAVCRect@@AAVCGXData@@PAVCGXStylesMap@@@Z @2878 NONAME
;  ?ParseText@CGXProperties@@UAE?AVCString@@PBD@Z @2879 NONAME
	?ParseText@CGXProperties@@UAE?AV?$CStringT@DV?$StrTraitMFC_DLL@DV?$ChTraitsCRT@D@ATL@@@@@ATL@@PBD@Z @2879 NONAME

  ?AddToken@CGXProperties@@QAEHPBD@Z @2880 NONAME
;  ?SubstTokenText@CGXProperties@@UAE?AVCString@@HAAV2@@Z @2881 NONAME
	?SubstTokenText@CGXProperties@@UAE?AV?$CStringT@DV?$StrTraitMFC_DLL@DV?$ChTraitsCRT@D@ATL@@@@@ATL@@HAAV23@@Z @2881 NONAME
;  ?GetTokenArgs@CGXProperties@@QAE?AVCString@@AAV2@@Z @2882 NONAME
	?GetTokenArgs@CGXProperties@@QAE?AV?$CStringT@DV?$StrTraitMFC_DLL@DV?$ChTraitsCRT@D@ATL@@@@@ATL@@AAV23@@Z @2882 NONAME

  ?Grid@CGXProperties@@QBEPAVCGXGridCore@@XZ @2883 NONAME
;  ??0CGXFont@@QAE@XZ @2884 NONAME
  ?SetBold@CGXFont@@QAEAAV1@H@Z @2887 NONAME
;  ?SetIncludeWeight@CGXFont@@QAEAAV1@H@Z @2888 NONAME
;  ?SetWeight@CGXFont@@QAEAAV1@J@Z @2891 NONAME 20.11.2017
;  ?StoreStyleRowCol@CGXData@@QAEHKKABVCGXStyle@@W4GXModifyType@@H@Z @2908 NONAME
;  ??0UserPropertyInfo@CGXProperties@@QAE@XZ @2909 NONAME
;  ??1UserPropertyInfo@CGXProperties@@QAE@XZ @2910 NONAME

;----------------  .\objs\ogmsasd\GXPRPDLG.obj  ----------------

  ??0CGXGridLineColorBox@@QAE@XZ @2923 NONAME
  ??1CGXGridLineColorBox@@UAE@XZ @2926 NONAME
  ?GetMessageMap@CGXGridLineColorBox@@MBEPBUAFX_MSGMAP@@XZ @2928 NONAME
  ?GetCurSel@CGXGridLineColorBox@@QBEHXZ @2929 NONAME
  ?SetCurSel@CGXGridLineColorBox@@QAEXH@Z @2930 NONAME
  ?OnLButtonDown@CGXGridLineColorBox@@IAEXIVCPoint@@@Z @2931 NONAME
  ?OnPaint@CGXGridLineColorBox@@IAEXXZ @2932 NONAME
  ?GetButtonRect@CGXGridLineColorBox@@QBE?AVCRect@@H@Z @2933 NONAME
  ?HitTest@CGXGridLineColorBox@@QBEHABVCPoint@@AAH@Z @2934 NONAME
  ?DrawColorButton@CGXGridLineColorBox@@QBEXPAVCDC@@H@Z @2935 NONAME
  ??0CGXDisplayPropertiesDialog@@QAE@PAVCGXProperties@@PAVCGXStylesMap@@PAHHIPAVCWnd@@@Z @2936 NONAME
;  ??0CGXUserPropertyGrid@@QAE@XZ @2940 NONAME
  ??1CGXUserPropertyGrid@@UAE@XZ @2943 NONAME
  ??1CGXGridWnd@@UAE@XZ @2944 NONAME
;  ??1CGXDisplayPropertiesDialog@@UAE@XZ @2945 NONAME 20.11.2017
  ?DoDataExchange@CGXDisplayPropertiesDialog@@MAEXPAVCDataExchange@@@Z @2947 NONAME
  ?UpdateSettings@CGXDisplayPropertiesDialog@@IAEXH@Z @2948 NONAME
  ?GetMessageMap@CGXDisplayPropertiesDialog@@MBEPBUAFX_MSGMAP@@XZ @2950 NONAME
  ?OnInitDialog@CGXDisplayPropertiesDialog@@MAEHXZ @2951 NONAME
  ?OnCheckedCtl@CGXDisplayPropertiesDialog@@IAEXXZ @2952 NONAME
  ?OnOK@CGXDisplayPropertiesDialog@@MAEXXZ @2953 NONAME
  ?OnCancel@CGXDisplayPropertiesDialog@@MAEXXZ @2954 NONAME
  ?OnShowWindow@CGXDisplayPropertiesDialog@@IAEXHI@Z @2955 NONAME
  ?OnClickedBtnPrinter@CGXDisplayPropertiesDialog@@IAEXXZ @2956 NONAME
  ??1CPrintDialog@@UAE@XZ @2957 NONAME
  ?OnChangedColor@CGXDisplayPropertiesDialog@@IAEJIJ@Z @2959 NONAME
  ?OnSelchangeIdcListcolors@CGXDisplayPropertiesDialog@@IAEXXZ @2960 NONAME
  ?OnNcActivate@CGXDisplayPropertiesDialog@@IAEHH@Z @2961 NONAME
  ?GetStyleRowCol@CGXUserPropertyGrid@@UAEHKKAAVCGXStyle@@W4GXModifyType@@H@Z @2962 NONAME
  ?StoreStyleRowCol@CGXUserPropertyGrid@@UAEHKKPBVCGXStyle@@W4GXModifyType@@H@Z @2963 NONAME
  ?OnInitialUpdate@CGXUserPropertyGrid@@UAEXXZ @2964 NONAME
  ?CanSelectCurrentCell@CGXUserPropertyGrid@@UAEHHKKKK@Z @2965 NONAME
  ??0CGXPrintPropertiesDialog@@QAE@PAVCGXProperties@@PAVCGXStylesMap@@PAHPAVCWnd@@@Z @2966 NONAME
;  ??1CGXPrintPropertiesDialog@@UAE@XZ @2969 NONAME
  ?DoDataExchange@CGXPrintPropertiesDialog@@MAEXPAVCDataExchange@@@Z @2970 NONAME
  ?GetMessageMap@CGXPrintPropertiesDialog@@MBEPBUAFX_MSGMAP@@XZ @2972 NONAME
  ?UpdateSettings@CGXPrintPropertiesDialog@@IAEXH@Z @2973 NONAME
  ?UpdatePreview@CGXPrintPropertiesDialog@@IAEXXZ @2974 NONAME
  ?OnInitDialog@CGXPrintPropertiesDialog@@MAEHXZ @2975 NONAME
  ?OnBtnPrinter@CGXPrintPropertiesDialog@@IAEXXZ @2976 NONAME
  ?OnCheckedCtl@CGXPrintPropertiesDialog@@IAEXXZ @2977 NONAME
  ?OnOK@CGXPrintPropertiesDialog@@MAEXXZ @2978 NONAME
  ?OnDestroy@CGXPrintPropertiesDialog@@IAEXXZ @2979 NONAME
  ?OnCancel@CGXPrintPropertiesDialog@@MAEXXZ @2980 NONAME
  ?OnShowWindow@CGXPrintPropertiesDialog@@IAEXHI@Z @2981 NONAME
  ??0CGXPrintPropertiesWnd@@QAE@XZ @2982 NONAME
  ??1CGXPrintPropertiesWnd@@UAE@XZ @2986 NONAME
  ?GetMessageMap@CGXPrintPropertiesWnd@@MBEPBUAFX_MSGMAP@@XZ @2988 NONAME
  ?OnPaint@CGXPrintPropertiesWnd@@IAEXXZ @2989 NONAME
  ??0CGXHeaderFooterDialog@@QAE@PAVCGXProperties@@PAHPAVCWnd@@@Z @2990 NONAME
;  ??0CGXHeaderFooterGrid@@QAE@XZ @2993 NONAME
  ??1CGXHeaderFooterGrid@@UAE@XZ @2996 NONAME
;  ??1CGXHeaderFooterDialog@@UAE@XZ @2997 NONAME 20.11.2017
  ?DoDataExchange@CGXHeaderFooterDialog@@MAEXPAVCDataExchange@@@Z @2999 NONAME
  ?GetTabWnd@CGXHeaderFooterDialog@@QAEAAVCGXTabWnd@@XZ @3000 NONAME
  ?UpdateSettings@CGXHeaderFooterDialog@@MAEXH@Z @3001 NONAME
  ?GetMessageMap@CGXHeaderFooterDialog@@MBEPBUAFX_MSGMAP@@XZ @3003 NONAME
  ?OnCtlColor@CGXHeaderFooterDialog@@IAEPAUHBRUSH__@@PAVCDC@@PAVCWnd@@I@Z @3004 NONAME
  ?OnInitDialog@CGXHeaderFooterDialog@@MAEHXZ @3005 NONAME
  ?OnClickedBtnFont@CGXHeaderFooterDialog@@IAEXXZ @3006 NONAME
  ?OnShowWindow@CGXHeaderFooterDialog@@IAEXHI@Z @3007 NONAME
  ?OnClickedBtnPrinter@CGXHeaderFooterDialog@@IAEXXZ @3008 NONAME
  ?OnOK@CGXHeaderFooterDialog@@MAEXXZ @3009 NONAME
  ?OnCancel@CGXHeaderFooterDialog@@MAEXXZ @3010 NONAME
  ?DoFontDialog@CGXHeaderFooterDialog@@IAEXPAVCGXGridWnd@@@Z @3011 NONAME
  ?GetMessageMap@CGXHeaderFooterGrid@@MBEPBUAFX_MSGMAP@@XZ @3017 NONAME
  ?OnInitCurrentCell@CGXHeaderFooterGrid@@UAEXKK@Z @3018 NONAME
  ?OnActivateGrid@CGXHeaderFooterGrid@@UAEHH@Z @3019 NONAME
  ?OnInitialUpdate@CGXHeaderFooterGrid@@UAEXXZ @3020 NONAME
;  ?AssertValid@CGXGridWnd@@WEA@BEXXZ @3022 NONAME
;  ?Dump@CGXGridWnd@@WEA@BEXAAVCDumpContext@@@Z @3023 NONAME
  ?SetInterior@CGXStyle@@QAEAAV1@K@Z @3040 NONAME
;  ?SetStyleRange@CGXGridCore@@QAEHABVCGXRange@@ABVCGXStyle@@W4GXModifyType@@HI@Z @3057 NONAME
;  ?SetDisplayHorzLines@CGXProperties@@QAEXH@Z @3067 NONAME
;  ?SetDisplayVertLines@CGXProperties@@QAEXH@Z @3068 NONAME
;  ?SetDisplay3dButtons@CGXProperties@@QAEXH@Z @3069 NONAME
;  ?SetMarkRowHeader@CGXProperties@@QAEXH@Z @3070 NONAME
;  ?SetMarkColHeader@CGXProperties@@QAEXH@Z @3071 NONAME
;  ?GetPrintRowHeaders@CGXProperties@@QAEHXZ @3074 NONAME
;  ?GetPrintColHeaders@CGXProperties@@QAEHXZ @3075 NONAME
;  ?GetPrintHorzLines@CGXProperties@@QAEHXZ @3077 NONAME
;  ?GetPrintVertLines@CGXProperties@@QAEHXZ @3078 NONAME
;  ?GetPrintBlackWhite@CGXProperties@@QAEHXZ @3080 NONAME
;  ?SetPrintHorzLines@CGXProperties@@QAEXH@Z @3081 NONAME
;  ?SetPrintVertLines@CGXProperties@@QAEXH@Z @3082 NONAME
;  ?SetCenterHorizontal@CGXProperties@@QAEXH@Z @3083 NONAME
;  ?SetCenterVertical@CGXProperties@@QAEXH@Z @3084 NONAME
;  ?SetBlackWhite@CGXProperties@@QAEXH@Z @3085 NONAME
;  ?SetPrintRowHeaders@CGXProperties@@QAEXH@Z @3086 NONAME
;  ?SetPrintColHeaders@CGXProperties@@QAEXH@Z @3087 NONAME
;  ?SetPageOrder@CGXProperties@@QAEXH@Z @3088 NONAME
;  ?SetPrintFrame@CGXProperties@@QAEXH@Z @3089 NONAME
;  ?GetDataHeader@CGXProperties@@QAEAAVCGXData@@XZ @3090 NONAME
;  ?GetDataFooter@CGXProperties@@QAEAAVCGXData@@XZ @3091 NONAME
;  ?SetMargins@CGXProperties@@QAEXHHHH@Z @3093 NONAME
;  ?SetDistances@CGXProperties@@QAEXHH@Z @3095 NONAME
;  ?SetFirstPage@CGXProperties@@QAEXH@Z @3096 NONAME
;  ?SetNewGridLineMode@CGXGridParam@@QAEXH@Z @3098 NONAME
;  ?SetGridLineStyle@CGXGridParam@@QAEXI@Z @3099 NONAME
;  ?SetActivateCellFlags@CGXGridParam@@QAEXG@Z @3100 NONAME
;  ?GetClientRect@CGXGridWnd@@QAEXPAUtagRECT@@@Z @3102 NONAME

;----------------  .\objs\ogmsasd\GXRANGE.obj  ----------------

  ?CreateObject@CGXRangeList@@SGPAVCObject@@XZ @3104 NONAME
  ?GetRuntimeClass@CGXRangeList@@UBEPAUCRuntimeClass@@XZ @3109 NONAME
  ??5@YGAAVCArchive@@AAV0@AAPAVCGXRangeList@@@Z @3110 NONAME
  ??0CGXRange@@QAE@XZ @3111 NONAME
  ??0CGXRange@@QAE@ABV0@@Z @3112 NONAME
  ??0CGXRange@@QAE@PBV0@@Z @3113 NONAME
  ??0CGXRange@@QAE@KKKK@Z @3114 NONAME
  ??4CGXRange@@QAEABV0@ABV0@@Z @3115 NONAME
  ?SetCells@CGXRange@@QAEAAV1@KKKK@Z @3116 NONAME
  ?SetRows@CGXRange@@QAEAAV1@KK@Z @3117 NONAME
  ?SetCols@CGXRange@@QAEAAV1@KK@Z @3118 NONAME
  ?SetTable@CGXRange@@QAEAAV1@XZ @3119 NONAME
  ?GetFirstCell@CGXRange@@QBEHAAK0@Z @3120 NONAME
  ?GetNextCell@CGXRange@@QBEHAAK0H@Z @3121 NONAME
  ?ExpandRange@CGXRange@@QAEAAV1@KKKK@Z @3122 NONAME
  ?IsCellInRange@CGXRange@@QBEHKK@Z @3123 NONAME
  ?IntersectRange@CGXRange@@QAEHABV1@0@Z @3124 NONAME
  ?UnionRange@CGXRange@@QAEHABV1@0@Z @3125 NONAME
  ??6@YGAAVCArchive@@AAV0@ABVCGXRange@@@Z @3126 NONAME
  ??5@YGAAVCArchive@@AAV0@AAVCGXRange@@@Z @3127 NONAME
  ??1CGXRangeList@@UAE@XZ @3128 NONAME
  ?Serialize@CGXRangeList@@UAEXAAVCArchive@@@Z @3129 NONAME
  ?DeleteGarbage@CGXRangeList@@QAEXXZ @3130 NONAME
  ??4CGXRangeList@@UAEAAV0@ABV0@@Z @3131 NONAME
  ?IsCellInList@CGXRangeList@@QBEHKKPAU__POSITION@@@Z @3132 NONAME
  ?DeleteAll@CGXRangeList@@QAEXXZ @3133 NONAME
  ?DeleteTail@CGXRangeList@@QAEXXZ @3134 NONAME
  ?FindRange@CGXRangeList@@QAEPAU__POSITION@@KK@Z @3135 NONAME
  ?DeleteAt@CGXRangeList@@QAEXPAU__POSITION@@@Z @3136 NONAME
  ?InsertRows@CGXRangeList@@QAEXKK@Z @3137 NONAME
  ?InsertCols@CGXRangeList@@QAEXKK@Z @3138 NONAME
  ?RemoveRows@CGXRangeList@@QAEXKKK@Z @3139 NONAME
  ?RemoveCols@CGXRangeList@@QAEXKKK@Z @3140 NONAME
  ?MoveRows@CGXRangeList@@QAEXKKKK@Z @3141 NONAME
  ?MoveCols@CGXRangeList@@QAEXKKKK@Z @3142 NONAME
  ?IsAnyCellFromCol@CGXRangeList@@QAEHK@Z @3143 NONAME
  ?IsAnyCellFromRow@CGXRangeList@@QAEHK@Z @3144 NONAME
  ?GetColArray@CGXRangeList@@QBEHKAAVCDWordArray@@0H@Z @3145 NONAME
  ?GetRowArray@CGXRangeList@@QBEHKAAVCDWordArray@@0H@Z @3146 NONAME
;  ?Dump@CGXRangeList@@UBEXAAVCDumpContext@@@Z @3147 NONAME
;  ?IsValid@CGXRange@@QBEHXZ @3151 NONAME
;  ?RemoveTail@CGXRangeList@@QAEPAVCGXRange@@XZ @3153 NONAME
;  ?AddHead@CGXRangeList@@QAEPAU__POSITION@@PAVCGXRange@@@Z @3154 NONAME

;----------------  .\objs\ogmsasd\gxscrltp.obj  ----------------

;  ??0?$CGXProcessLocal@UGX_SCROLLTIP_STATE@@@@QAE@XZ @3162 NONAME

;  ??0?$CTypedPtrMap@VCMapPtrToPtr@@PAVAFX_MODULE_STATE@@PAUGX_SCROLLTIP_STATE@@@@QAE@H@Z @3163 NONAME
;  ??1?$CGXProcessLocal@UGX_SCROLLTIP_STATE@@@@QAE@XZ @3165 NONAME 20.11.2017
;  ?GetNextAssoc@?$CTypedPtrMap@VCMapPtrToPtr@@PAVAFX_MODULE_STATE@@PAUGX_SCROLLTIP_STATE@@@@QBEXAAPAU__POSITION@@AAPAVAFX_MODULE_STATE@@AAPAUGX_SCROLLTIP_STATE@@@Z @3166 NONAME
;  ??1?$CTypedPtrMap@VCMapPtrToPtr@@PAVAFX_MODULE_STATE@@PAUGX_SCROLLTIP_STATE@@@@UAE@XZ @3168 NONAME
  ??0GX_SCROLLTIP_STATE@@QAE@XZ @3169 NONAME
;  ??1GX_SCROLLTIP_STATE@@UAE@XZ @3174 NONAME
  ??0CGXScrollTip@@QAE@XZ @3175 NONAME
  ??1CGXScrollTip@@UAE@XZ @3178 NONAME
  ?GetMessageMap@CGXScrollTip@@MBEPBUAFX_MSGMAP@@XZ @3180 NONAME
  ?HandleThumbTrackMessage@CGXScrollTip@@QAEHPAVCWnd@@HPBDPAVCScrollBar@@@Z @3181 NONAME
  ?HandleScrollMessage@CGXScrollTip@@QAEHPAVCWnd@@IHPBDPAVCScrollBar@@@Z @3182 NONAME
  ?SaveBackground@CGXScrollTip@@QAEXPAVCWnd@@ABVCRect@@@Z @3183 NONAME
  ?RestoreBackground@CGXScrollTip@@QAEXPAVCWnd@@@Z @3186 NONAME
  ?Create@CGXScrollTip@@QAEHPAVCWnd@@@Z @3187 NONAME
;  ??C?$CGXProcessLocal@UGX_SCROLLTIP_STATE@@@@QAEPAUGX_SCROLLTIP_STATE@@XZ @3188 NONAME
;  ?GetData@?$CGXProcessLocal@UGX_SCROLLTIP_STATE@@@@QAEPAUGX_SCROLLTIP_STATE@@XZ @3189 NONAME 20.11.2017
;  ?Lookup@?$CTypedPtrMap@VCMapPtrToPtr@@PAVAFX_MODULE_STATE@@PAUGX_SCROLLTIP_STATE@@@@QBEHPAXAAPAUGX_SCROLLTIP_STATE@@@Z @3191 NONAME
;  ?SetAt@?$CTypedPtrMap@VCMapPtrToPtr@@PAVAFX_MODULE_STATE@@PAUGX_SCROLLTIP_STATE@@@@QAEXPAVAFX_MODULE_STATE@@PAUGX_SCROLLTIP_STATE@@@Z @3192 NONAME
  ?CreateObject@?$CGXProcessLocal@UGX_SCROLLTIP_STATE@@@@SGPAVCNoTrackObject@@XZ @3193 NONAME
  ?GetData@?$CGXProcessLocal@UGX_SCROLLTIP_STATE@@@@QAEPAVCNoTrackObject@@P6GPAV2@XZ@Z @3194 NONAME
  ?OnPaint@CGXScrollTip@@IAEXXZ @3197 NONAME
  ?GetSliderPositionHelper@CGXScrollTip@@SG?AVCPoint@@PAVCWnd@@HPAVCScrollBar@@VCSize@@@Z @3198 NONAME

;----------------  .\objs\ogmsasd\gxseldrg.obj  ----------------

  ?ImplementUserDragSelectRange@CGXGridCore@@QAEXXZ @3199 NONAME
;  ??0CGXGridUserDragSelectRangeImp@@QAE@XZ @3200 NONAME

;  ??0CGXAbstractGridUserDragSelectRangeImp@@QAE@XZ @3202 NONAME

  ?OnLButtonDown@CGXGridUserDragSelectRangeImp@@UAEHPAVCGXGridCore@@AAVCPoint@@AAIAAHAAK4@Z @3204 NONAME
  ?OnMouseMove@CGXGridUserDragSelectRangeImp@@UAEHPAVCGXGridCore@@AAVCPoint@@AAI@Z @3205 NONAME
  ?OnLButtonUp@CGXGridUserDragSelectRangeImp@@UAEHPAVCGXGridCore@@AAVCPoint@@AAI@Z @3206 NONAME
  ?OnSelDragStart@CGXGridUserDragSelectRangeImp@@UAEHPAVCGXGridCore@@KK@Z @3207 NONAME
  ?OnSelDragMove@CGXGridUserDragSelectRangeImp@@UAEHPAVCGXGridCore@@KKKK@Z @3208 NONAME
  ?OnSelDragDrop@CGXGridUserDragSelectRangeImp@@UAEHPAVCGXGridCore@@KKKK@Z @3209 NONAME
  ?OnSelDragCancel@CGXGridUserDragSelectRangeImp@@UAEXPAVCGXGridCore@@@Z @3210 NONAME

;----------------  .\objs\ogmsasd\gxselgrx.obj  ----------------

  ?ImplementExcelLikeFrame@CGXGridCore@@QAEXXZ @3224 NONAME
;  ??0CGXGridExcelLikeFrameImp@@QAE@XZ @3225 NONAME

;  ??0CGXAbstractGridExcelLikeFrameImp@@QAE@XZ @3227 NONAME

  ?DrawInvertFrame@CGXGridExcelLikeFrameImp@@UAEXPAVCGXGridCore@@PAVCDC@@ABVCRect@@2HHHH@Z @3229 NONAME
  ?DrawSelectionRangeFrame@CGXGridExcelLikeFrameImp@@UAEXPAVCGXGridCore@@PAVCDC@@ABVCGXRange@@HH@Z @3230 NONAME
  ?DrawSelectionFrame@CGXGridExcelLikeFrameImp@@UAEXPAVCGXGridCore@@PAVCDC@@HPBVCGXRange@@@Z @3232 NONAME
  ?ToggleSelectionFrameMarker@CGXGridExcelLikeFrameImp@@UAEXPAVCGXGridCore@@@Z @3233 NONAME
  ?LockSelectionFrame@CGXGridExcelLikeFrameImp@@UAEHPAVCGXGridCore@@HH@Z @3234 NONAME
;  ?GetExcelLikeSelectionFrame@CGXGridParam@@QAEHXZ @3243 NONAME

;----------------  .\objs\ogmsasd\gxselrgu.obj  ----------------

  ?ImplementUserSelectRange@CGXGridCore@@QAEXXZ @3247 NONAME
;  ??0CGXGridUserSelectRangeImp@@QAE@XZ @3248 NONAME

;  ??0CGXAbstractGridUserSelectRangeImp@@QAE@XZ @3250 NONAME

  ?MoveCurrentCellEx@CGXGridUserSelectRangeImp@@UAEHPAVCGXGridCore@@HI@Z @3252 NONAME
  ?OnLButtonDown@CGXGridUserSelectRangeImp@@UAEXPAVCGXGridCore@@AAVCPoint@@AAIAAHAAK4@Z @3253 NONAME
  ?OnMouseMove@CGXGridUserSelectRangeImp@@UAEHPAVCGXGridCore@@AAVCPoint@@AAIAAK3@Z @3254 NONAME
  ?OnLButtonUp@CGXGridUserSelectRangeImp@@UAEXPAVCGXGridCore@@AAVCPoint@@AAI@Z @3255 NONAME
  ?SelectRange@CGXGridUserSelectRangeImp@@UAEXPAVCGXGridCore@@ABVCGXRange@@HH@Z @3256 NONAME
  ?StoreSelectRange@CGXGridUserSelectRangeImp@@UAEHPAVCGXGridCore@@ABVCGXRange@@H@Z @3260 NONAME
  ?UpdateSelectRange@CGXGridUserSelectRangeImp@@UAEXPAVCGXGridCore@@ABVCGXRange@@PBVCGXRangeList@@H@Z @3261 NONAME
  ?SetSelection@CGXGridUserSelectRangeImp@@UAEXPAVCGXGridCore@@PAU__POSITION@@KKKK@Z @3262 NONAME
  ?PrepareChangeSelection@CGXGridUserSelectRangeImp@@UAEXPAVCGXGridCore@@PAU__POSITION@@KKKKH@Z @3263 NONAME
  ?PrepareClearSelection@CGXGridUserSelectRangeImp@@UAEXPAVCGXGridCore@@H@Z @3264 NONAME
  ?OnLButtonClickedRowCol@CGXGridUserSelectRangeImp@@UAEHPAVCGXGridCore@@KKIVCPoint@@@Z @3265 NONAME
;  ?SetRows@CGXRange@@QAEAAV1@K@Z @3273 NONAME
;  ?SetCols@CGXRange@@QAEAAV1@K@Z @3274 NONAME
;  ?GetHead@CGXRangeList@@QBEPAVCGXRange@@XZ @3279 NONAME

;----------------  .\objs\ogmsasd\gxsizeu.obj  ----------------

  ?ImplementUserResizeCells@CGXGridCore@@QAEXXZ @3287 NONAME
;  ??0CGXGridUserResizeCellsImp@@QAE@XZ @3288 NONAME

;  ??0CGXAbstractGridUserResizeCellsImp@@QAE@XZ @3290 NONAME

  ?OnMouseMove@CGXGridUserResizeCellsImp@@UAEHPAVCGXGridCore@@AAVCPoint@@AAI@Z @3292 NONAME
  ?OnLButtonDown@CGXGridUserResizeCellsImp@@UAEHPAVCGXGridCore@@AAVCPoint@@AAIAAHAAK4@Z @3293 NONAME
  ?OnLButtonUp@CGXGridUserResizeCellsImp@@UAEHPAVCGXGridCore@@AAVCPoint@@AAI@Z @3294 NONAME
  ?OnStartTracking@CGXGridUserResizeCellsImp@@UAEHPAVCGXGridCore@@KKH@Z @3295 NONAME
  ?OnMoveTracking@CGXGridUserResizeCellsImp@@UAEXPAVCGXGridCore@@KKHAAVCSize@@@Z @3296 NONAME
  ?OnCancelTracking@CGXGridUserResizeCellsImp@@UAEXPAVCGXGridCore@@@Z @3297 NONAME
  ?OnEndTracking@CGXGridUserResizeCellsImp@@UAEXPAVCGXGridCore@@KKHAAVCSize@@@Z @3298 NONAME
  ?OnLButtonDblClk@CGXGridUserResizeCellsImp@@UAEHPAVCGXGridCore@@AAVCPoint@@AAIAAHAAK4@Z @3299 NONAME

;----------------  .\objs\ogmsasd\GXSplit.obj  ----------------

  ?_gxSplitData@@3V?$CProcessLocal@UGX_SPLITTER_DATA@@@@A @3323 NONAME
  ?GetRuntimeClass@CGXSplitterWnd@@UBEPAUCRuntimeClass@@XZ @3325 NONAME
  ??0CGXInsideWndState@@QAE@XZ @3326 NONAME
  ??1CGXInsideWndState@@QAE@XZ @3327 NONAME
;  ??1?$CProcessLocal@UGX_SPLITTER_DATA@@@@QAE@XZ @3328 NONAME
  ??0GX_SPLITTER_DATA@@QAE@XZ @3329 NONAME
;  ??1GX_SPLITTER_DATA@@UAE@XZ @3334 NONAME
  ??0CGXSplitterWnd@@QAE@XZ @3335 NONAME
;  ??C?$CProcessLocal@UGX_SPLITTER_DATA@@@@QAEPAUGX_SPLITTER_DATA@@XZ @3337 NONAME
  ??1CGXSplitterWnd@@UAE@XZ @3342 NONAME
  ?GetMessageMap@CGXSplitterWnd@@MBEPBUAFX_MSGMAP@@XZ @3345 NONAME
  ?GetSplitterBoxRect@CGXSplitterWnd@@QBE?AVCRect@@H@Z @3346 NONAME
  ?OnDrawInsideSplitter@CGXSplitterWnd@@UAEXPAVCDC@@W4GXSplitterBoxPos@@PAUCGXInsideWndState@@@Z @3347 NONAME
  ?StartTracking@CGXSplitterWnd@@UAEXH@Z @3348 NONAME
  ?StopTracking@CGXSplitterWnd@@UAEXH@Z @3351 NONAME
  ?GetHitRect@CGXSplitterWnd@@UAEXHAAVCRect@@@Z @3352 NONAME
  ?HitTest@CGXSplitterWnd@@UBEHVCPoint@@@Z @3353 NONAME
  ?RecalcLayout@CGXSplitterWnd@@UAEXXZ @3354 NONAME
  ?OnPaint@CGXSplitterWnd@@IAEXXZ @3355 NONAME
  ?OnMouseMove@CGXSplitterWnd@@IAEXIVCPoint@@@Z @3356 NONAME
  ?SetSplitCursor@CGXSplitterWnd@@UAEXH@Z @3357 NONAME
  ?OnLButtonDown@CGXSplitterWnd@@IAEXIVCPoint@@@Z @3358 NONAME
  ?OnLButtonDblClk@CGXSplitterWnd@@IAEXIVCPoint@@@Z @3359 NONAME
  ?OnMouseWheel@CGXSplitterWnd@@IAEHIFVCPoint@@@Z @3360 NONAME

;----------------  .\objs\ogmsasd\GXSTYDLG.obj  ----------------

  ?GetRuntimeClass@CGXStyleSheet@@UBEPAUCRuntimeClass@@XZ @3414 NONAME
  ?GetRuntimeClass@CGXStylesDialog@@UBEPAUCRuntimeClass@@XZ @3416 NONAME
  ?CreateObject@CGXFontPage@@SGPAVCObject@@XZ @3417 NONAME
  ?GetRuntimeClass@CGXFontPage@@UBEPAUCRuntimeClass@@XZ @3419 NONAME
  ?CreateObject@CGXFormatPage@@SGPAVCObject@@XZ @3420 NONAME
  ?GetRuntimeClass@CGXFormatPage@@UBEPAUCRuntimeClass@@XZ @3422 NONAME
  ?CreateObject@CGXColorPage@@SGPAVCObject@@XZ @3423 NONAME
  ?GetRuntimeClass@CGXColorPage@@UBEPAUCRuntimeClass@@XZ @3425 NONAME
  ?CreateObject@CGXBorderPage@@SGPAVCObject@@XZ @3426 NONAME
  ?GetRuntimeClass@CGXBorderPage@@UBEPAUCRuntimeClass@@XZ @3428 NONAME
  ?CreateObject@CGXAlignmentPage@@SGPAVCObject@@XZ @3429 NONAME
  ?GetRuntimeClass@CGXAlignmentPage@@UBEPAUCRuntimeClass@@XZ @3431 NONAME
  ?CreateObject@CGXMergeCellPage@@SGPAVCObject@@XZ @3432 NONAME
  ?GetRuntimeClass@CGXMergeCellPage@@UBEPAUCRuntimeClass@@XZ @3434 NONAME
  ?CreateObject@CGXFloatCellPage@@SGPAVCObject@@XZ @3435 NONAME
  ?GetRuntimeClass@CGXFloatCellPage@@UBEPAUCRuntimeClass@@XZ @3437 NONAME
  ?CreateObject@CGXControlPage@@SGPAVCObject@@XZ @3438 NONAME
  ?GetRuntimeClass@CGXControlPage@@UBEPAUCRuntimeClass@@XZ @3440 NONAME
  ?CreateObject@CGXUserAttributPage@@SGPAVCObject@@XZ @3441 NONAME
  ?GetRuntimeClass@CGXUserAttributPage@@UBEPAUCRuntimeClass@@XZ @3443 NONAME
  ?CreateObject@CGXBasedOnPage@@SGPAVCObject@@XZ @3444 NONAME
  ?GetRuntimeClass@CGXBasedOnPage@@UBEPAUCRuntimeClass@@XZ @3446 NONAME
  ??0CGXStylesDialog@@QAE@PAVCWnd@@@Z @3447 NONAME
;  ??1CGXStylesDialog@@UAE@XZ @3450 NONAME
  ?DoDataExchange@CGXStylesDialog@@MAEXPAVCDataExchange@@@Z @3451 NONAME
  ?GetMessageMap@CGXStylesDialog@@MBEPBUAFX_MSGMAP@@XZ @3453 NONAME
  ?OnBtnAddStyle@CGXStylesDialog@@IAEXXZ @3454 NONAME
  ?CreateStyleSheet@CGXStylesDialog@@MAEPAVCGXStyleSheet@@XZ @3455 NONAME
  ?SetStylesMap@CGXStylesDialog@@QAEXAAVCGXStylesMap@@@Z @3456 NONAME
  ?GetStylesMap@CGXStylesDialog@@QAEABVCGXStylesMap@@XZ @3457 NONAME
  ?SetParam@CGXStylesDialog@@QAEXPAVCGXGridParam@@@Z @3458 NONAME
  ?OnBtnChangeStyle@CGXStylesDialog@@IAEXXZ @3459 NONAME
  ?OnBtnLoadDefStyles@CGXStylesDialog@@IAEXXZ @3460 NONAME
  ?OnBtnRemoveStyle@CGXStylesDialog@@IAEXXZ @3461 NONAME
  ?OnSelchangeStyleNames@CGXStylesDialog@@IAEXXZ @3462 NONAME
  ?OnEditchangeStyleName@CGXStylesDialog@@IAEXXZ @3463 NONAME
  ?OnDblclkStyleNames@CGXStylesDialog@@IAEXXZ @3464 NONAME
  ?OnOK@CGXStylesDialog@@MAEXXZ @3465 NONAME
  ??0CGXStyleSheet@@QAE@IAAVCGXStylesMap@@PAVCWnd@@I@Z @3466 NONAME
  ??0CGXStyleSheet@@QAE@PBDAAVCGXStylesMap@@PAVCWnd@@I@Z @3469 NONAME
  ??0CGXStyleSheet@@QAE@IPAVCGXGridParam@@PAVCGXStylesMap@@PAVCWnd@@I@Z @3470 NONAME
  ??0CGXStyleSheet@@QAE@PBDPAVCGXGridParam@@PAVCGXStylesMap@@PAVCWnd@@I@Z @3471 NONAME
  ?Init@CGXStyleSheet@@IAEXXZ @3472 NONAME
  ?CreatePages@CGXStyleSheet@@UAEXXZ @3473 NONAME
  ?CreateFontPage@CGXStyleSheet@@MAEPAVCGXFontPage@@XZ @3474 NONAME
  ?CreateColorPage@CGXStyleSheet@@MAEPAVCGXColorPage@@XZ @3475 NONAME
  ?CreateBorderPage@CGXStyleSheet@@MAEPAVCGXBorderPage@@XZ @3476 NONAME
  ?CreateAlignmentPage@CGXStyleSheet@@MAEPAVCGXAlignmentPage@@XZ @3477 NONAME
  ?CreateFloatCellPage@CGXStyleSheet@@MAEPAVCGXFloatCellPage@@XZ @3478 NONAME
  ?CreateMergeCellPage@CGXStyleSheet@@MAEPAVCGXMergeCellPage@@XZ @3479 NONAME
  ?CreateControlPage@CGXStyleSheet@@MAEPAVCGXControlPage@@XZ @3480 NONAME
  ?CreateUserAttributPage@CGXStyleSheet@@MAEPAVCGXUserAttributPage@@XZ @3481 NONAME
  ?CreateBasedOnPage@CGXStyleSheet@@MAEPAVCGXBasedOnPage@@XZ @3482 NONAME
  ?CreateFormatPage@CGXStyleSheet@@MAEPAVCGXFormatPage@@XZ @3483 NONAME
  ??1CGXStyleSheet@@UAE@XZ @3484 NONAME
  ?GetMessageMap@CGXStyleSheet@@MBEPBUAFX_MSGMAP@@XZ @3486 NONAME
  ?OnNcActivate@CGXStyleSheet@@IAEHH@Z @3487 NONAME
  ?GetStyle@CGXStyleSheet@@QBEABVCGXStyle@@XZ @3488 NONAME
  ?GetDefaultStyle@CGXStyleSheet@@QBEABVCGXStyle@@XZ @3489 NONAME
  ?GetStylesMap@CGXStyleSheet@@QBEABVCGXStylesMap@@XZ @3490 NONAME
  ?SetStyle@CGXStyleSheet@@QAEXABVCGXStyle@@@Z @3491 NONAME
  ?UpdateData@CGXStyleSheet@@UAEXH@Z @3492 NONAME
  ?SetDefaultStyle@CGXStyleSheet@@QAEXABVCGXStyle@@@Z @3493 NONAME
  ?OnOK@CGXStyleSheet@@IAEXXZ @3494 NONAME
  ?DoModal@CGXStyleSheet@@UAEHXZ @3495 NONAME
  ??0CGXFontSample@@QAE@XZ @3496 NONAME
  ??1CGXFontSample@@UAE@XZ @3499 NONAME
  ?GetMessageMap@CGXFontSample@@MBEPBUAFX_MSGMAP@@XZ @3501 NONAME
  ?OnPaint@CGXFontSample@@IAEXXZ @3502 NONAME
  ??0CGXTextColorComboBox@@QAE@XZ @3503 NONAME
  ??1CGXTextColorComboBox@@UAE@XZ @3506 NONAME
  ?GetMessageMap@CGXTextColorComboBox@@MBEPBUAFX_MSGMAP@@XZ @3508 NONAME
  ?DrawItem@CGXTextColorComboBox@@UAEXPAUtagDRAWITEMSTRUCT@@@Z @3509 NONAME
  ?SetTextColor@CGXFontSample@@QAEXK@Z @3510 NONAME
  ?GetTextColor@CGXFontSample@@QBEKXZ @3511 NONAME
  ?SetSampleFont@CGXFontSample@@QAEXPAVCFont@@H@Z @3512 NONAME
  ?GetSampleFont@CGXFontSample@@QAEPAVCFont@@XZ @3513 NONAME
  ??0CGXFontFaceNameBox@@QAE@XZ @3514 NONAME
  ??1CGXFontFaceNameBox@@UAE@XZ @3517 NONAME
  ?InitSysColors@CGXFontFaceNameBox@@QAEXXZ @3518 NONAME
  ?GetMessageMap@CGXFontFaceNameBox@@MBEPBUAFX_MSGMAP@@XZ @3520 NONAME
  ?DrawItem@CGXFontFaceNameBox@@UAEXPAUtagDRAWITEMSTRUCT@@@Z @3521 NONAME
  ?OnSysColorChange@CGXFontFaceNameBox@@IAEXXZ @3522 NONAME
  ??0CGXFontPage@@QAE@PBVCGXFont@@@Z @3523 NONAME
  ??1CGXFontPage@@UAE@XZ @3526 NONAME
  ?SetParentFont@CGXFontPage@@QAEXPBVCGXFont@@PBD@Z @3527 NONAME
  ?GetFont@CGXFontPage@@QBEABVCGXFont@@XZ @3528 NONAME
  ?SetFont@CGXFontPage@@QAEXPBVCGXFont@@@Z @3529 NONAME
  ?SetTextColor@CGXFontPage@@QAEXK@Z @3530 NONAME
  ?GetTextColor@CGXFontPage@@QAEKXZ @3531 NONAME
  ?SetIncludeTextColor@CGXFontPage@@QAEXH@Z @3532 NONAME
  ?GetIncludeTextColor@CGXFontPage@@QAEHXZ @3533 NONAME
  ?DoDataExchange@CGXFontPage@@MAEXPAVCDataExchange@@@Z @3534 NONAME
  ?GetMessageMap@CGXFontPage@@MBEPBUAFX_MSGMAP@@XZ @3536 NONAME
  ?OnInitDialog@CGXFontPage@@MAEHXZ @3537 NONAME
  ?OnSelchangeFaceName@CGXFontPage@@IAEXXZ @3538 NONAME
  ?OnSelchangeOutline@CGXFontPage@@IAEXXZ @3539 NONAME
  ?OnSelchangeSize@CGXFontPage@@IAEXXZ @3540 NONAME
  ?OnKillfocusSize@CGXFontPage@@IAEXXZ @3541 NONAME
  ?OnSelchangeOrientation@CGXFontPage@@IAEXXZ @3542 NONAME
  ?OnKillfocusOrientation@CGXFontPage@@IAEXXZ @3543 NONAME
  ?OnKillfocusOutline@CGXFontPage@@IAEXXZ @3544 NONAME
  ?OnKillfocusFacename@CGXFontPage@@IAEXXZ @3545 NONAME
  ?OnUnderlineClicked@CGXFontPage@@IAEXXZ @3546 NONAME
  ?OnStrikeoutClicked@CGXFontPage@@IAEXXZ @3547 NONAME
  ?OnCloseupGxcbtextcolor@CGXFontPage@@IAEXXZ @3548 NONAME
  ?OnEditchangeGxcbtextcolor@CGXFontPage@@IAEXXZ @3551 NONAME
  ?RegisterClassA@CGXColorButtonBox@@SGPBDXZ @3552 NONAME
  ?RegisterClassA@CGXColorButtonBox@@SGPBDPAUHINSTANCE__@@@Z @3554 NONAME
;  ?IsEmptyFont@CGXFont@@QBEHXZ @3555 NONAME 20.11.2017
  ?WndProcHook@CGXColorButtonBox@@KGJPAUHWND__@@IIJ@Z @3556 NONAME
;  ?GetIncludeWeight@CGXFont@@QBEHXZ @3558 NONAME
  ?UnregisterClassA@CGXColorButtonBox@@SGXXZ @3561 NONAME
  ?UnregisterClassA@CGXColorButtonBox@@SGXPAUHINSTANCE__@@@Z @3562 NONAME
  ?PostNcDestroy@CGXColorButtonBox@@MAEXXZ @3563 NONAME
  ??0CGXColorButtonBox@@QAE@XZ @3564 NONAME
  ?GetBold@CGXFont@@QBEHXZ @3566 NONAME
  ?GetWeight@CGXFont@@QBEJXZ @3568 NONAME
  ??1CGXColorButtonBox@@UAE@XZ @3570 NONAME
;  ?GetIncludeItalic@CGXFont@@QBEHXZ @3574 NONAME
  ?GetMessageMap@CGXColorButtonBox@@MBEPBUAFX_MSGMAP@@XZ @3575 NONAME
  ?SetIncludeItalic@CGXFont@@QAEAAV1@H@Z @3576 NONAME
  ?GetCurSel@CGXColorButtonBox@@QBEHXZ @3577 NONAME
  ?SetCurSel@CGXColorButtonBox@@QAEXH@Z @3578 NONAME
  ?GetItalic@CGXFont@@QBEHXZ @3579 NONAME
  ?OnLButtonDown@CGXColorButtonBox@@IAEXIVCPoint@@@Z @3580 NONAME
  ?SetItalic@CGXFont@@QAEAAV1@H@Z @3581 NONAME
;  ?GetIncludeUnderline@CGXFont@@QBEHXZ @3582 NONAME
;  ?SetIncludeUnderline@CGXFont@@QAEAAV1@H@Z @3583 NONAME
  ?GetUnderline@CGXFont@@QBEHXZ @3584 NONAME
  ?OnPaint@CGXColorButtonBox@@IAEXXZ @3585 NONAME
  ?SetUnderline@CGXFont@@QAEAAV1@H@Z @3586 NONAME
  ?GetButtonRect@CGXColorButtonBox@@QBE?AVCRect@@H@Z @3587 NONAME
;  ?GetIncludeStrikeOut@CGXFont@@QBEHXZ @3588 NONAME
;  ?SetIncludeStrikeOut@CGXFont@@QAEAAV1@H@Z @3589 NONAME
  ?GetStrikeOut@CGXFont@@QBEHXZ @3590 NONAME
  ?SetStrikeOut@CGXFont@@QAEAAV1@H@Z @3591 NONAME
  ?HitTest@CGXColorButtonBox@@QBEHABVCPoint@@AAH@Z @3594 NONAME
  ?DrawColorButton@CGXColorButtonBox@@QBEXPAVCDC@@H@Z @3597 NONAME
  ?RegisterClassA@CGXColorSample@@SGPBDXZ @3602 NONAME
;  ?GetIncludeFaceName@CGXFont@@QBEHXZ @3604 NONAME
;  ?SetIncludeFaceName@CGXFont@@QAEAAV1@H@Z @3605 NONAME
  ?RegisterClassA@CGXColorSample@@SGPBDPAUHINSTANCE__@@@Z @3606 NONAME
;  ?GetFaceName@CGXFont@@QBEPBDXZ @3607 NONAME 20.11.2017
  ?WndProcHook@CGXColorSample@@KGJPAUHWND__@@IIJ@Z @3608 NONAME
  ?GetFaceNameId@CGXFont@@QBEIXZ @3609 NONAME
;  ?SetFaceName@CGXFont@@QAEAAV1@PBD@Z @3610 NONAME 20.11.2017
  ?UnregisterClassA@CGXColorSample@@SGXXZ @3611 NONAME
;  ?SetFaceNameId@CGXFont@@QAEAAV1@I@Z @3612 NONAME 20.11.2017
  ?UnregisterClassA@CGXColorSample@@SGXPAUHINSTANCE__@@@Z @3613 NONAME
  ?PostNcDestroy@CGXColorSample@@MAEXXZ @3614 NONAME
  ?SetInterior@CGXColorSample@@QAEXABUCGXBrush@@@Z @3615 NONAME
  ?GetInteriorRef@CGXColorSample@@QBEABUCGXBrush@@XZ @3618 NONAME
  ?Get3dFrame@CGXColorSample@@QBEHXZ @3619 NONAME
  ?Set3dFrame@CGXColorSample@@QAEXH@Z @3621 NONAME
  ??0CGXColorSample@@QAE@XZ @3622 NONAME
  ??1CGXColorSample@@UAE@XZ @3626 NONAME
  ?GetMessageMap@CGXColorSample@@MBEPBUAFX_MSGMAP@@XZ @3628 NONAME
  ?OnPaint@CGXColorSample@@IAEXXZ @3629 NONAME
  ??0CGXPatternComboBox@@QAE@XZ @3633 NONAME
  ??1CGXPatternComboBox@@UAE@XZ @3636 NONAME
  ?GetTextColor@CGXPatternComboBox@@QBEKXZ @3638 NONAME
;  ??0CGXPen@@QAE@ABUtagLOGPEN@@@Z @3639 NONAME 20.11.2017
  ?SetTextColor@CGXPatternComboBox@@QAEXK@Z @3640 NONAME
  ?GetBackColor@CGXPatternComboBox@@QBEKXZ @3641 NONAME
  ?SetBackColor@CGXPatternComboBox@@QAEXK@Z @3642 NONAME
  ?GetMessageMap@CGXPatternComboBox@@MBEPBUAFX_MSGMAP@@XZ @3644 NONAME
  ?DrawItem@CGXPatternComboBox@@UAEXPAUtagDRAWITEMSTRUCT@@@Z @3645 NONAME
;  ?SetHatch@CGXBrush@@QAEAAU1@J@Z @3646 NONAME
  ??0CGXColorPage@@QAE@XZ @3648 NONAME
  ??1CGXColorPage@@UAE@XZ @3651 NONAME
  ?DoDataExchange@CGXColorPage@@MAEXPAVCDataExchange@@@Z @3652 NONAME
;  ?GetHatch@CGXBrush@@QBEJXZ @3653 NONAME
;  ?GetPattern@CGXBrush@@QBEHXZ @3654 NONAME
  ?Get3dFrame@CGXColorPage@@QBEHXZ @3659 NONAME
  ?Set3dFrame@CGXColorPage@@QAEXH@Z @3660 NONAME
  ?BackColorWnd@CGXColorPage@@IAEAAVCGXColorButtonBox@@XZ @3661 NONAME
  ?TextColorWnd@CGXColorPage@@IAEAAVCGXColorButtonBox@@XZ @3662 NONAME
  ?ColorSampleWnd@CGXColorPage@@IAEAAVCGXColorSample@@XZ @3664 NONAME
  ?GetMessageMap@CGXColorPage@@MBEPBUAFX_MSGMAP@@XZ @3668 NONAME
  ?GetIncludeInterior@CGXColorPage@@QBEHXZ @3669 NONAME
  ?SetIncludeInterior@CGXColorPage@@QAEXH@Z @3670 NONAME
  ?GetInterior@CGXColorPage@@QBEABUCGXBrush@@XZ @3671 NONAME
  ?SetInterior@CGXColorPage@@QAEXABUCGXBrush@@@Z @3673 NONAME
  ?OnInitDialog@CGXColorPage@@MAEHXZ @3674 NONAME
  ?OnChangedColor@CGXColorPage@@IAEJIJ@Z @3678 NONAME
  ?OnSelchangeGxcombopattern@CGXColorPage@@IAEXXZ @3683 NONAME
  ?OnGxbtn3dradioClicked@CGXColorPage@@IAEXXZ @3685 NONAME
  ??0CGXBorderTypeButton@@QAE@XZ @3686 NONAME
  ?SetLogPen@CGXBorderTypeButton@@QAEXABUtagLOGPEN@@@Z @3692 NONAME
  ?GetLogPen@CGXBorderTypeButton@@QAEABUtagLOGPEN@@XZ @3694 NONAME
  ?EnableCheckBox@CGXBorderTypeButton@@QAEXH@Z @3696 NONAME
  ?SetActive@CGXBorderTypeButton@@QAEXH@Z @3698 NONAME
  ?SetInclude@CGXBorderTypeButton@@QAEXH@Z @3699 NONAME
  ?SetColor@CGXBorderTypeButton@@QAEXK@Z @3700 NONAME
  ?GetInclude@CGXBorderTypeButton@@QAEHXZ @3702 NONAME
  ??1CGXBorderTypeButton@@UAE@XZ @3703 NONAME
  ?GetMessageMap@CGXBorderTypeButton@@MBEPBUAFX_MSGMAP@@XZ @3706 NONAME
  ?DrawItem@CGXBorderTypeButton@@UAEXPAUtagDRAWITEMSTRUCT@@@Z @3707 NONAME
;  ?SetIncludeBorders@CGXStyle@@QAEAAV1@H@Z @3708 NONAME
  ?GetBorders@CGXStyle@@QBE?AUCGXPen@@W4GXBorderType@@@Z @3709 NONAME
;  ?SetIncludeFont@CGXStyle@@QAEAAV1@H@Z @3715 NONAME
  ??0CGXColorComboBox@@QAE@XZ @3720 NONAME
  ??1CGXColorComboBox@@UAE@XZ @3723 NONAME
  ?GetMessageMap@CGXColorComboBox@@MBEPBUAFX_MSGMAP@@XZ @3725 NONAME
  ?DrawItem@CGXColorComboBox@@UAEXPAUtagDRAWITEMSTRUCT@@@Z @3726 NONAME
  ??0CGXBorderPage@@QAE@XZ @3729 NONAME
  ??1CGXBorderPage@@UAE@XZ @3739 NONAME
  ?DoDataExchange@CGXBorderPage@@MAEXPAVCDataExchange@@@Z @3743 NONAME
  ?GetMessageMap@CGXBorderPage@@MBEPBUAFX_MSGMAP@@XZ @3746 NONAME
  ?OnInitDialog@CGXBorderPage@@MAEHXZ @3747 NONAME
  ?GetFloatCell@CGXStyle@@QBEHXZ @3750 NONAME
  ?GetFloodCell@CGXStyle@@QBEHXZ @3754 NONAME
  ?OnCommand@CGXBorderPage@@MAEHIJ@Z @3756 NONAME
  ?GetMergeCell@CGXStyle@@QBEIXZ @3759 NONAME
  ?OnSelendokCombocolor@CGXBorderPage@@IAEXXZ @3766 NONAME
  ?OnCloseupCombocolor@CGXBorderPage@@IAEXXZ @3770 NONAME
  ?SetIncludeBorders@CGXBorderPage@@QAEXHH@Z @3772 NONAME
  ?SetBorders@CGXBorderPage@@QAEXHABUtagLOGPEN@@@Z @3774 NONAME
  ?GetIncludeBorders@CGXBorderPage@@QAEHH@Z @3776 NONAME
  ?GetBorders@CGXBorderPage@@QAEABUtagLOGPEN@@H@Z @3779 NONAME
  ?EnableRangeButton@CGXBorderPage@@QAEXH@Z @3780 NONAME
  ?PreTranslateMessage@CGXBorderPage@@MAEHPAUtagMSG@@@Z @3781 NONAME
  ??0CGXAlignmentPage@@QAE@XZ @3782 NONAME
  ??1CGXAlignmentPage@@UAE@XZ @3785 NONAME
  ?DoDataExchange@CGXAlignmentPage@@MAEXPAVCDataExchange@@@Z @3786 NONAME
  ?GetMessageMap@CGXAlignmentPage@@MBEPBUAFX_MSGMAP@@XZ @3788 NONAME
  ??0CGXControlPage@@QAE@XZ @3789 NONAME
  ??1CGXControlPage@@UAE@XZ @3795 NONAME
  ?DoDataExchange@CGXControlPage@@MAEXPAVCDataExchange@@@Z @3797 NONAME
  ?GetMessageMap@CGXControlPage@@MBEPBUAFX_MSGMAP@@XZ @3806 NONAME
  ?OnInitDialog@CGXControlPage@@MAEHXZ @3807 NONAME
  ?OnGxcheckValue@CGXControlPage@@IAEXXZ @3813 NONAME
  ?RegisterClassA@CGXUserAttributPageGrid@@SGPBDXZ @3815 NONAME
  ?RegisterClassA@CGXUserAttributPageGrid@@SGPBDPAUHINSTANCE__@@@Z @3817 NONAME
  ?WndProcHook@CGXUserAttributPageGrid@@KGJPAUHWND__@@IIJ@Z @3820 NONAME
;  ??0CGXUserAttributPageGrid@@QAE@XZ @3821 NONAME
  ??1CGXUserAttributPageGrid@@UAE@XZ @3827 NONAME
  ?UnregisterClassA@CGXUserAttributPageGrid@@SGXXZ @3828 NONAME
  ?UnregisterClassA@CGXUserAttributPageGrid@@SGXPAUHINSTANCE__@@@Z @3829 NONAME
  ?PostNcDestroy@CGXUserAttributPageGrid@@MAEXXZ @3830 NONAME
  ?GetStyleRowCol@CGXUserAttributPageGrid@@UAEHKKAAVCGXStyle@@W4GXModifyType@@H@Z @3831 NONAME
;  ?SetValue@CGXStyle@@QAEAAV1@G@Z @3834 NONAME 20.11.2017
  ?StoreStyleRowCol@CGXUserAttributPageGrid@@UAEHKKPBVCGXStyle@@W4GXModifyType@@H@Z @3836 NONAME
;  ?GetShortValue@CGXStyle@@QBEFXZ @3838 NONAME
  ?OnInitialUpdate@CGXUserAttributPageGrid@@UAEXXZ @3840 NONAME
  ?CanSelectCurrentCell@CGXUserAttributPageGrid@@UAEHHKKKK@Z @3847 NONAME
  ?OnModifyCell@CGXUserAttributPageGrid@@UAEXKK@Z @3848 NONAME
  ?OnClickedButtonRowCol@CGXUserAttributPageGrid@@UAEXKK@Z @3849 NONAME
  ??0CGXUserAttributPage@@QAE@XZ @3850 NONAME
  ??1CGXUserAttributPage@@UAE@XZ @3853 NONAME
  ?DoDataExchange@CGXUserAttributPage@@MAEXPAVCDataExchange@@@Z @3854 NONAME
  ?GetMessageMap@CGXUserAttributPage@@MBEPBUAFX_MSGMAP@@XZ @3856 NONAME
  ?OnInitDialog@CGXUserAttributPage@@MAEHXZ @3857 NONAME
  ??0CGXBasedOnPage@@QAE@XZ @3858 NONAME
  ??1CGXBasedOnPage@@UAE@XZ @3861 NONAME
  ?DoDataExchange@CGXBasedOnPage@@MAEXPAVCDataExchange@@@Z @3863 NONAME
  ?GetMessageMap@CGXBasedOnPage@@MBEPBUAFX_MSGMAP@@XZ @3865 NONAME
  ?OnInitDialog@CGXBasedOnPage@@MAEHXZ @3866 NONAME
  ??0CGXFloatCellPage@@QAE@XZ @3867 NONAME
  ??1CGXFloatCellPage@@UAE@XZ @3870 NONAME
  ?DoDataExchange@CGXFloatCellPage@@MAEXPAVCDataExchange@@@Z @3871 NONAME
  ?GetMessageMap@CGXFloatCellPage@@MBEPBUAFX_MSGMAP@@XZ @3873 NONAME
  ??0CGXMergeCellPage@@QAE@XZ @3874 NONAME
  ??1CGXMergeCellPage@@UAE@XZ @3877 NONAME
  ?DoDataExchange@CGXMergeCellPage@@MAEXPAVCDataExchange@@@Z @3878 NONAME
  ?GetMessageMap@CGXMergeCellPage@@MBEPBUAFX_MSGMAP@@XZ @3880 NONAME
  ??0CGXFormatPage@@QAE@XZ @3881 NONAME
  ??1CGXFormatPage@@UAE@XZ @3885 NONAME
  ?DoDataExchange@CGXFormatPage@@MAEXPAVCDataExchange@@@Z @3886 NONAME
  ?GetMessageMap@CGXFormatPage@@MBEPBUAFX_MSGMAP@@XZ @3888 NONAME
  ?OnInitDialog@CGXFormatPage@@MAEHXZ @3889 NONAME
;  ?_GXDrawSunkenBorders@@YGXPAVCDC@@AAVCRect@@HH@Z @3903 NONAME

;----------------  .\objs\ogmsasd\gxstygd2.obj  ----------------

  ??0CGXFont@@QAE@PBD@Z @3905 NONAME
  ?GetDescription@CGXFont@@QBEXPAD@Z @3907 NONAME
  ?GetDescription@CGXFont@@QBE?AV?$CStringT@DV?$StrTraitMFC_DLL@DV?$ChTraitsCRT@D@ATL@@@@@ATL@@XZ
;  ?GetDescription@CGXFont@@QBE?AVCString@@XZ @3908 NONAME
  ?SetDescription@CGXFont@@QAEAAV1@PBD@Z @3909 NONAME
  ??0CGXBrush@@QAE@PBD@Z @3912 NONAME
  ?SetDescription@CGXBrush@@QAEAAU1@PBD@Z @3913 NONAME
  ?GetDescription@CGXBrush@@QBEXPAD@Z @3915 NONAME
;  ?GetDescription@CGXBrush@@QBE?AVCString@@XZ @3916 NONAME

;----------------  .\objs\ogmsasd\gxstygd3.obj  ----------------

  ??0CGXPen@@QAE@PBD@Z @3951 NONAME
  ?SetDescription@CGXPen@@QAEAAU1@PBD@Z @3952 NONAME
  ?GetDescription@CGXPen@@QBEXPAD@Z @3953 NONAME
;  ?GetDescription@CGXPen@@QBE?AVCString@@XZ @3955 NONAME

;----------------  .\objs\ogmsasd\gxstygdi.obj  ----------------

  ?szPenFormat@CGXPen@@2PBDB @3958 NONAME
  ?szBrushFormat@CGXBrush@@2PBDB @3959 NONAME
  ?szArial@CGXFont@@2PBDB @3960 NONAME
  ?CreateObject@CGXFont@@SGPAVCObject@@XZ @3962 NONAME
  ?GetRuntimeClass@CGXFont@@UBEPAUCRuntimeClass@@XZ @3964 NONAME
  ??5@YGAAVCArchive@@AAV0@AAPAVCGXFont@@@Z @3965 NONAME
  ??0CGXFontInfo@@QAE@XZ @3966 NONAME
  ?_gxfsEnumAllFaces@@YGHPAUtagLOGFONTA@@PAUtagTEXTMETRICA@@HPAUCGXFontInfoArray@@@Z @3968 NONAME
  ??0GX_FONT_STATE@@QAE@XZ @3969 NONAME
  ??1GX_FONT_STATE@@QAE@XZ @3971 NONAME
  ?LookupFontInfo@GX_FONT_STATE@@QAEIPBDEE@Z @3972 NONAME
  ?GetFontInfo@GX_FONT_STATE@@QBEPAUCGXFontInfo@@I@Z @3973 NONAME
  ?GetFontType@GX_FONT_STATE@@QBEHI@Z @3974 NONAME
  ?GetFontCharset@GX_FONT_STATE@@QBEEI@Z @3975 NONAME
  ?Size_lf2ui@CGXFont@@KGIN@Z @3976 NONAME
  ?Size_ui2lf@CGXFont@@KGNI@Z @3977 NONAME
  ?Orientation_lf2ui@CGXFont@@KGIJ@Z @3978 NONAME
  ?Orientation_ui2lf@CGXFont@@KGJI@Z @3979 NONAME
  ?Weight_lf2ui@CGXFont@@KGIJ@Z @3980 NONAME
  ?Weight_ui2lf@CGXFont@@KGJI@Z @3981 NONAME
  ?FaceName_str2ui@CGXFont@@KGIPBD@Z @3982 NONAME
  ?FaceName_ui2str@CGXFont@@KGPBDI@Z @3983 NONAME
  ??0CGXFont@@QAE@ABUtagLOGFONTA@@@Z @3984 NONAME
  ??0CGXFont@@QAE@ABV0@@Z @3986 NONAME
  ?Release@CGXFont@@IAEX_J@Z @3987 NONAME
  ?GetData@CGXFont@@IBEPAUCGXFontData@@_J@Z @3988 NONAME
  ??1CGXFont@@UAE@XZ @3989 NONAME
  ?InitLogFont@CGXFont@@IBEXAAUtagLOGFONTA@@@Z @3990 NONAME
  ?GetLogFontRef@CGXFont@@QBEABUtagLOGFONTA@@XZ @3992 NONAME
  ?GetLogFont@CGXFont@@QBE?AUtagLOGFONTA@@H@Z @3993 NONAME
  ?SetLogFont@CGXFont@@QAEAAV1@ABUtagLOGFONTA@@@Z @3994 NONAME
  ??BCGXFont@@QBE?AUtagLOGFONTA@@XZ @3995 NONAME
  ??BCGXFont@@QBEPBUtagLOGFONTA@@XZ @3996 NONAME
  ?Init@CGXFont@@IAEXXZ @3997 NONAME
  ??4CGXFont@@QAEABV0@ABV0@@Z @3998 NONAME
  ??4CGXFont@@QAEABV0@ABUtagLOGFONTA@@@Z @3999 NONAME
  ?SetDefault@CGXFont@@QAEAAV1@XZ @4000 NONAME
  ?ChangeFont@CGXFont@@QAEAAV1@ABV1@W4GXModifyType@@@Z @4001 NONAME
  ?IsSubSet@CGXFont@@QBEHABV1@@Z @4002 NONAME
  ??6@YGAAVCArchive@@AAV0@AB_J@Z @4003 NONAME
  ??5@YGAAVCArchive@@AAV0@AA_J@Z @4004 NONAME
  ?Serialize@CGXFont@@UAEXAAVCArchive@@@Z @4005 NONAME
  ?WriteProfile@CGXFont@@QBEXPBD0@Z @4006 NONAME
  ?ReadProfile@CGXFont@@QAEHPBD0@Z @4007 NONAME
  ??6@YGAAVCArchive@@AAV0@ABVCGXFont@@@Z @4008 NONAME
  ??5@YGAAVCArchive@@AAV0@AAVCGXFont@@@Z @4009 NONAME
  ??0CGXBrush@@QAE@XZ @4010 NONAME
  ??0CGXBrush@@QAE@ABUtagLOGBRUSH@@@Z @4011 NONAME
  ??0CGXBrush@@QAE@ABU0@@Z @4012 NONAME
  ??0CGXBrush@@QAE@IKJ@Z @4013 NONAME
  ??BCGXBrush@@QBE?AUtagLOGBRUSH@@XZ @4014 NONAME
  ??BCGXBrush@@QBEPBUtagLOGBRUSH@@XZ @4015 NONAME
  ??6@YGAAVCArchive@@AAV0@ABUCGXBrush@@@Z @4016 NONAME
  ??5@YGAAVCArchive@@AAV0@AAUCGXBrush@@@Z @4017 NONAME
  ?SetInclude@CGXPen@@QAEAAU1@H@Z @4018 NONAME
  ?CreateCompatibleBrush@CGXPen@@QBEHAAUCGXBrush@@ABU2@HH@Z @4019 NONAME
  ??6@YGAAVCArchive@@AAV0@ABUCGXPen@@@Z @4020 NONAME
  ??5@YGAAVCArchive@@AAV0@AAUCGXPen@@@Z @4021 NONAME
  ??BCGXPen@@QBE?AUtagLOGPEN@@XZ @4022 NONAME
  ??BCGXPen@@QBEPAUtagLOGPEN@@XZ @4023 NONAME
;  ?GetData@CGXFont@@IBEPAUCGXFontData@@XZ @4026 NONAME

;----------------  .\objs\ogmsasd\gxstyle2.obj  ----------------

  ?ImplementCompareSubset@CGXStyle@@SGXXZ @4069 NONAME
;  ??0CGXStyleCompareSubsetImp@@QAE@XZ @4070 NONAME

;  ??0CGXAbstractStyleCompareSubsetImp@@QAE@XZ @4072 NONAME

  ?IsSubset@CGXStyleCompareSubsetImp@@UAEHPBVCGXStyle@@ABV2@@Z @4074 NONAME
;  ?GetIncludeItemDataPtr@CGXStyle@@QBEHXZ @4129 NONAME
  ?GetItemDataPtr@CGXStyle@@QBEPAXXZ @4130 NONAME
;  ?GetUserAttributeMap@CGXStyle@@QBEPBVCGXUserAttributeMap@@XZ @4131 NONAME

;----------------  .\objs\ogmsasd\GXSTYLES.obj  ----------------

  ?nBorders@CGXStyle@@2HB @4132 NONAME
  ?szPlaces@CGXStyle@@2PBDB @4133 NONAME
  ?szFormat@CGXStyle@@2PBDB @4134 NONAME
  ?szMergeCell@CGXStyle@@2PBDB @4135 NONAME
  ?szFloodCell@CGXStyle@@2PBDB @4136 NONAME
  ?szFloatCell@CGXStyle@@2PBDB @4137 NONAME
  ?szBaseStyle@CGXStyle@@2PBDB @4138 NONAME
  ?szAutoSize@CGXStyle@@2PBDB @4139 NONAME
  ?szDraw3dFrame@CGXStyle@@2PBDB @4140 NONAME
  ?szTriState@CGXStyle@@2PBDB @4141 NONAME
  ?szEnabled@CGXStyle@@2PBDB @4142 NONAME
  ?szChoiceList@CGXStyle@@2PBDB @4143 NONAME
  ?szVertScroll@CGXStyle@@2PBDB @4144 NONAME
  ?szMaxLength@CGXStyle@@2PBDB @4145 NONAME
  ?szValue@CGXStyle@@2PBDB @4146 NONAME
  ?szBorder@CGXStyle@@2PAPBDA @4147 NONAME
  ?szBorders@CGXStyle@@2PBDB @4148 NONAME
  ?szFont@CGXStyle@@2PBDB @4149 NONAME
  ?szAllowEnter@CGXStyle@@2PBDB @4150 NONAME
  ?szWrapText@CGXStyle@@2PBDB @4151 NONAME
  ?szTextColor@CGXStyle@@2PBDB @4152 NONAME
  ?szInterior@CGXStyle@@2PBDB @4153 NONAME
  ?szControl@CGXStyle@@2PBDB @4154 NONAME
  ?szReadOnly@CGXStyle@@2PBDB @4155 NONAME
  ?szVerticalAlignment@CGXStyle@@2PBDB @4156 NONAME
  ?szHorizontalAlignment@CGXStyle@@2PBDB @4157 NONAME
  ?CreateObject@CGXStyle@@SGPAVCObject@@XZ @4159 NONAME
  ?GetRuntimeClass@CGXStyle@@UBEPAUCRuntimeClass@@XZ @4161 NONAME
  ??5@YGAAVCArchive@@AAV0@AAPAVCGXStyle@@@Z @4162 NONAME
  ?GetPortable@STYLEBITS@CGXStyle@@QBEKXZ @4163 NONAME
  ?SetPortable@STYLEBITS@CGXStyle@@QAEXK@Z @4164 NONAME
  ??0CGXStyle@@QAE@ABV0@@Z @4165 NONAME
  ?Clone@CGXStyle@@UBEPAV1@XZ @4167 NONAME
  ?ConstructStyle@CGXStyle@@IAEXXZ @4168 NONAME
  ?SetDefault@CGXStyle@@UAEAAV1@XZ @4169 NONAME
  ??1CGXStyle@@UAE@XZ @4170 NONAME
  ?Free@CGXStyle@@UAEXXZ @4171 NONAME
  ?Serialize@CGXStyle@@UAEXAAVCArchive@@@Z @4172 NONAME
  ?Serialize@CGXStyle@@UAEXAAVCArchive@@PBVCGXStylesMap@@@Z @4173 NONAME
  ?WriteProfile@CGXStyle@@UBEXPBDPBVCGXStylesMap@@@Z @4174 NONAME
  ?ReadProfile@CGXStyle@@UAEHPBDPBVCGXStylesMap@@@Z @4175 NONAME
  ??4CGXStyle@@UAEABV0@ABV0@@Z @4176 NONAME
  ?ChangeStyle@CGXStyle@@UAEXABV1@W4GXModifyType@@@Z @4177 NONAME
  ?IsSubSet@CGXStyle@@UBEHABV1@@Z @4178 NONAME
  ?LoadBaseStyle@CGXStyle@@UAEXABVCGXStylesMap@@@Z @4179 NONAME
  ?AssertValid@CGXStyle@@UBEXXZ @4180 NONAME
;  ?Dump@CGXStyle@@UBEXAAVCDumpContext@@@Z @4181 NONAME
  ?SetUserAttributes@CGXStyle@@QAEAAV1@PBVCGXUserAttributeMap@@@Z @4182 NONAME
  ?SetBorders@CGXStyle@@IAEAAV1@PBUCGXPen@@@Z @4183 NONAME
  ?SetBorders@CGXStyle@@QAEAAV1@W4GXBorderType@@ABUCGXPen@@@Z @4185 NONAME
  ?SetIncludeBorders@CGXStyle@@QAEAAV1@W4GXBorderType@@H@Z @4186 NONAME
  ?SetFont@CGXStyle@@QAEAAV1@ABVCGXFont@@W4GXModifyType@@@Z @4187 NONAME
  ?GetIncludeUserAttribute@CGXStyle@@QBEHG@Z @4188 NONAME
  ?GetUserAttribute@CGXStyle@@QBEABVCGXAbstractUserAttribute@@G@Z @4189 NONAME
  ?SetUserAttribute@CGXStyle@@QAEAAV1@GABVCGXAbstractUserAttribute@@@Z @4190 NONAME
  ?SetUserAttributePtr@CGXStyle@@QAEAAV1@GPAVCGXAbstractUserAttribute@@@Z @4191 NONAME
;  ??4CGXPen@@QAEAAU0@ABU0@@Z @4197 NONAME
;  ?GetNoPortableBits@STYLEBITS@CGXStyle@@QBEKXZ @4202 NONAME
;  ?SetNoPortableBits@STYLEBITS@CGXStyle@@QAEXK@Z @4203 NONAME
;  ?NoPortableIsEmptyBits@STYLEBITS@CGXStyle@@QBEHXZ @4204 NONAME
;  ?SetChoiceList@CGXStyle@@QAEAAV1@PBD@Z @4293 NONAME
;  ?SetIncludeItemDataPtr@CGXStyle@@QAEAAV1@H@Z @4308 NONAME
;  ?SetItemDataPtr@CGXStyle@@QAEAAV1@PAX@Z @4310 NONAME

;----------------  .\objs\ogmsasd\gxstymap.obj  ----------------

  ?szDefaultSection@CGXStylesMap@@2PBDB @4313 NONAME
  ?CreateObject@CGXStylesMap@@SGPAVCObject@@XZ @4315 NONAME
  ?GetRuntimeClass@CGXStylesMap@@UBEPAUCRuntimeClass@@XZ @4317 NONAME
  ??5@YGAAVCArchive@@AAV0@AAPAVCGXStylesMap@@@Z @4318 NONAME
  ??0CGXStylesMap@@QAE@PAUCRuntimeClass@@@Z @4319 NONAME
  ??0CGXStylesMap@@QAE@ABV0@@Z @4322 NONAME
  ?CreateStandardStyles@CGXStylesMap@@QAEXXZ @4323 NONAME
  ??1CGXStylesMap@@UAE@XZ @4324 NONAME
  ?Free@CGXStylesMap@@IAEXXZ @4325 NONAME
  ?FreeStylesMap@CGXStylesMap@@IAEXXZ @4327 NONAME
  ?FreeControlMap@CGXStylesMap@@IAEXXZ @4329 NONAME
  ??4CGXStylesMap@@QAEABV0@ABV0@@Z @4331 NONAME
  ?Serialize@CGXStylesMap@@UAEXAAVCArchive@@@Z @4332 NONAME
  ?AssertValid@CGXStylesMap@@UBEXXZ @4333 NONAME
;  ?Dump@CGXStylesMap@@UBEXAAVCDumpContext@@@Z @4334 NONAME
  ?WriteProfile@CGXStylesMap@@UBEXXZ @4335 NONAME
  ?ReadProfile@CGXStylesMap@@UAEHXZ @4336 NONAME
  ?AddControl@CGXStylesMap@@QAEXG@Z @4337 NONAME
  ?GetControlNameMap@CGXStylesMap@@QBEABVCMapWordToPtr@@XZ @4338 NONAME
  ??0UserAttrInfo@CGXStylesMap@@QAE@ABU01@@Z @4339 NONAME
  ?AddUserAttribute@CGXStylesMap@@QAEXGPBVCGXStyle@@@Z @4340 NONAME
  ?GetUserAttrInfoMap@CGXStylesMap@@QBEABVCMapWordToPtr@@XZ @4341 NONAME
  ??0BaseStyleInfo@CGXStylesMap@@QAE@ABU01@@Z @4342 NONAME
  ?GetBaseStyleId@CGXStylesMap@@QBEGPBD@Z @4343 NONAME
  ?GetBaseStyleId@CGXStylesMap@@QBEGI@Z @4344 NONAME
  ?GetStyleName@CGXStylesMap@@QBEPBDGAAI@Z @4345 NONAME
  ?RegisterStyle@CGXStylesMap@@QAEGPBDABVCGXStyle@@H@Z @4346 NONAME
  ?RegisterStyle@CGXStylesMap@@QAEGIABVCGXStyle@@H@Z @4347 NONAME
  ?StoreStyle@CGXStylesMap@@IAEXGABVCGXStyle@@PBDIH@Z @4348 NONAME
  ?GetNewId@CGXStylesMap@@IAEGXZ @4349 NONAME
  ?LookupStyle@CGXStylesMap@@QBEHGAAPAVCGXStyle@@@Z @4350 NONAME
  ?IsSystemStyle@CGXStylesMap@@QBEHG@Z @4351 NONAME
  ?RemoveStyle@CGXStylesMap@@QAEXG@Z @4352 NONAME
  ?StartStylesIteration@CGXStylesMap@@QBEPAU__POSITION@@XZ @4353 NONAME
;  ?GetNextStyle@CGXStylesMap@@QBEXAAPAU__POSITION@@AAGAAVCString@@AAIAAPBVCGXStyle@@@Z @4354 NONAME
  ?RegisterDefaultControls@CGXStylesMap@@QAEXXZ @4355 NONAME
  ?RegisterDefaultUserAttributes@CGXStylesMap@@QAEXXZ @4356 NONAME
  ?Grid@CGXStylesMap@@QBEPAVCGXGridCore@@XZ @4357 NONAME
;  ??0UserAttrInfo@CGXStylesMap@@QAE@XZ @4381 NONAME
;  ??1UserAttrInfo@CGXStylesMap@@QAE@XZ @4382 NONAME
;  ??0BaseStyleInfo@CGXStylesMap@@QAE@XZ @4383 NONAME
 ??0BaseStyleInfo@CGXStylesMap@@QAE@ABU01@@Z @4383 NONAME

;  ??1BaseStyleInfo@CGXStylesMap@@QAE@XZ @4384 NONAME

;----------------  .\objs\ogmsasd\gxstyua.obj  ----------------

;  ?m_strValueCache@CGXAbstractUserAttribute@@2VCString@@A @4387 NONAME
  ?CreateObject@CGXUserAttributeMap@@SGPAVCObject@@XZ @4388 NONAME
  ?GetRuntimeClass@CGXUserAttributeMap@@UBEPAUCRuntimeClass@@XZ @4390 NONAME
  ??5@YGAAVCArchive@@AAV0@AAPAVCGXUserAttributeMap@@@Z @4391 NONAME
  ?CreateObject@CGXAbstractUserAttribute@@SGPAVCObject@@XZ @4392 NONAME
  ?GetRuntimeClass@CGXAbstractUserAttribute@@UBEPAUCRuntimeClass@@XZ @4394 NONAME
  ??5@YGAAVCArchive@@AAV0@AAPAVCGXAbstractUserAttribute@@@Z @4395 NONAME
  ??0CGXAbstractUserAttribute@@QAE@XZ @4396 NONAME
  ??1CGXAbstractUserAttribute@@UAE@XZ @4399 NONAME
;  ?SetValue@CGXAbstractUserAttribute@@UAEAAV1@ABVCString@@@Z @4400 NONAME
  ??BCGXAbstractUserAttribute@@QBEPBDXZ @4401 NONAME
  ?Serialize@CGXAbstractUserAttribute@@UAEXAAVCArchive@@@Z @4402 NONAME
  ?IsEqual@CGXAbstractUserAttribute@@UBEHABV1@@Z @4403 NONAME
  ?IsEmpty@CGXAbstractUserAttribute@@UBEHXZ @4404 NONAME
  ?SetValue@CGXAbstractUserAttribute@@UAEAAV1@PBD@Z @4405 NONAME
;  ?GetValue@CGXAbstractUserAttribute@@UBEABVCString@@XZ @4406 NONAME
  ?GetDWordValue@CGXAbstractUserAttribute@@UBEKXZ @4407 NONAME
  ?GetLongValue@CGXAbstractUserAttribute@@UBEJXZ @4408 NONAME
  ?GetDoubleValue@CGXAbstractUserAttribute@@UBENXZ @4409 NONAME
  ?Clone@CGXAbstractUserAttribute@@UBEPAV1@XZ @4410 NONAME
  ??0CGXUserAttributeMap@@QAE@XZ @4411 NONAME
  ??1CGXUserAttributeMap@@UAE@XZ @4414 NONAME
  ?Empty@CGXUserAttributeMap@@QAEXXZ @4415 NONAME
  ?IsEmpty@CGXUserAttributeMap@@QBEHXZ @4416 NONAME
  ?SetAttribute@CGXUserAttributeMap@@QAEXGABVCGXAbstractUserAttribute@@@Z @4417 NONAME
  ?SetAttributePtr@CGXUserAttributeMap@@QAEXGPAVCGXAbstractUserAttribute@@@Z @4418 NONAME
  ?DeleteAttribute@CGXUserAttributeMap@@QAEXG@Z @4419 NONAME
  ?GetAttribute@CGXUserAttributeMap@@QBEPBVCGXAbstractUserAttribute@@G@Z @4420 NONAME
  ?ChangeMap@CGXUserAttributeMap@@QAEXPBV1@W4GXModifyType@@@Z @4421 NONAME
  ?WriteProfile@CGXUserAttributeMap@@QBEXPBD@Z @4422 NONAME
  ?Serialize@CGXUserAttributeMap@@UAEXAAVCArchive@@@Z @4423 NONAME
  ?FindAttribute@CGXUserAttributeMap@@QBEHG@Z @4424 NONAME
  ?Sort@CGXUserAttributeMap@@QAEXXZ @4425 NONAME

;----------------  .\objs\ogmsasd\gxstyuai.obj  ----------------

  ?CreateObject@CGXUserAttribute@@SGPAVCObject@@XZ @4427 NONAME
  ?GetRuntimeClass@CGXUserAttribute@@UBEPAUCRuntimeClass@@XZ @4429 NONAME
  ??5@YGAAVCArchive@@AAV0@AAPAVCGXUserAttribute@@@Z @4430 NONAME
  ?SetIncludeUserAttribute@CGXStyle@@QAEAAV1@GH@Z @4431 NONAME
  ??0CGXUserAttribute@@QAE@XZ @4432 NONAME
  ??0CGXUserAttribute@@QAE@K@Z @4435 NONAME
  ??0CGXUserAttribute@@QAE@J@Z @4436 NONAME
;  ??0CGXUserAttribute@@QAE@ABVCString@@@Z @4437 NONAME
  ??0CGXUserAttribute@@QAE@PBD@Z @4439 NONAME
  ??0CGXUserAttribute@@QAE@N@Z @4440 NONAME
  ??0CGXUserAttribute@@QAE@_J@Z @4441 NONAME
  ??0CGXUserAttribute@@QAE@ABV0@@Z @4442 NONAME
  ??1CGXUserAttribute@@UAE@XZ @4443 NONAME
;  ?GetValue@CGXUserAttribute@@UBEABVCString@@XZ @4444 NONAME
  ?GetDWordValue@CGXUserAttribute@@UBEKXZ @4445 NONAME
  ?GetLongValue@CGXUserAttribute@@UBEJXZ @4446 NONAME
  ?GetDoubleValue@CGXUserAttribute@@UBENXZ @4447 NONAME
  ?SetValue@CGXUserAttribute@@UAEAAVCGXAbstractUserAttribute@@PBD@Z @4448 NONAME
  ?Serialize@CGXUserAttribute@@UAEXAAVCArchive@@@Z @4449 NONAME
  ?Clone@CGXUserAttribute@@UBEPAVCGXAbstractUserAttribute@@XZ @4450 NONAME
  ?IsEqual@CGXUserAttribute@@UBEHABVCGXAbstractUserAttribute@@@Z @4451 NONAME

;----------------  .\objs\ogmsasd\GXTBEAM.obj  ----------------

	?GetThisClass@CGXTabBeam@@SGPAUCRuntimeClass@@XZ
  ?CreateObject@CGXTabBeam@@SGPAVCObject@@XZ @4457 NONAME
  ?GetRuntimeClass@CGXTabBeam@@UBEPAUCRuntimeClass@@XZ @4459 NONAME
  ?GetRuntimeClass@CGXEditLabelPopup@@UBEPAUCRuntimeClass@@XZ @4461 NONAME
  ?RegisterClassA@CGXTabBeam@@SGPBDXZ @4462 NONAME
  ?RegisterClassA@CGXTabBeam@@SGPBDPAUHINSTANCE__@@@Z @4463 NONAME
  ?WndProcHook@CGXTabBeam@@KGJPAUHWND__@@IIJ@Z @4464 NONAME
  ?UnregisterClassA@CGXTabBeam@@SGXXZ @4465 NONAME
  ?UnregisterClassA@CGXTabBeam@@SGXPAUHINSTANCE__@@@Z @4466 NONAME
  ?PostNcDestroy@CGXTabBeam@@MAEXXZ @4467 NONAME
  ??0CGXTabInfo@@QAE@XZ @4468 NONAME
  ??1CGXTabInfo@@UAE@XZ @4471 NONAME
  ?GetMessageMap@CGXTabBeam@@MBEPBUAFX_MSGMAP@@XZ @4473 NONAME
  ??0CGXTabBeam@@QAE@XZ @4474 NONAME
  ?Create@CGXTabBeam@@QAEHKABUtagRECT@@PAVCWnd@@I@Z @4477 NONAME
  ??1CGXTabBeam@@UAE@XZ @4478 NONAME
  ?CreateBrushes@CGXTabBeam@@QAEXXZ @4479 NONAME
  ?CreateFonts@CGXTabBeam@@QAEXXZ @4480 NONAME
  ?DestroyFonts@CGXTabBeam@@QAEXXZ @4481 NONAME
  ?SetTabBkColor@CGXTabBeam@@QAEXHK@Z @4482 NONAME
  ?SetTabSelBkColor@CGXTabBeam@@QAEXHK@Z @4483 NONAME
  ?DisplayScrollBtns@CGXTabBeam@@QAEXHH@Z @4484 NONAME
  ?SetNotifyWnd@CGXTabBeam@@QAEXPAVCWnd@@@Z @4485 NONAME
  ?InsertTab@CGXTabBeam@@UAEXHPBDPAVCObject@@HHPAUHMENU__@@@Z @4486 NONAME
  ?DeleteTab@CGXTabBeam@@UAEXH@Z @4487 NONAME
  ?GetTab@CGXTabBeam@@QAEAAVCGXTabInfo@@H@Z @4488 NONAME
  ?CalcTabOffset@CGXTabBeam@@UAEHH@Z @4489 NONAME
  ?CalcTabFromOffset@CGXTabBeam@@UAEHH@Z @4490 NONAME
  ?CalcLastVisibleTab@CGXTabBeam@@UAEHXZ @4491 NONAME
  ?SwitchToTab@CGXTabBeam@@UAEXVCPoint@@@Z @4492 NONAME
  ?ScrollTabInView@CGXTabBeam@@QAEXH@Z @4493 NONAME
  ?OnLButtonDblClk@CGXTabBeam@@IAEXIVCPoint@@@Z @4494 NONAME
  ?AdjustTabSize@CGXTabBeam@@UAEXH@Z @4495 NONAME
  ?FindTab@CGXTabBeam@@UAEHPBVCObject@@@Z @4496 NONAME
  ?GetCurSel@CGXTabBeam@@QAEHXZ @4497 NONAME
  ?GetCount@CGXTabBeam@@QAEHXZ @4498 NONAME
  ?OnPaint@CGXTabBeam@@IAEXXZ @4499 NONAME
  ?DrawTab@CGXTabBeam@@UAEXPAVCDC@@H@Z @4500 NONAME
  ?DrawButton@CGXTabBeam@@UAEXPAVCDC@@HH@Z @4501 NONAME
  ?OnEraseBkgnd@CGXTabBeam@@IAEHPAVCDC@@@Z @4502 NONAME
  ?AutoMove@CGXTabBeam@@UAEXI@Z @4503 NONAME
  ?ScrollBtnHit@CGXTabBeam@@UAEHVCPoint@@H@Z @4504 NONAME
  ?Scroll@CGXTabBeam@@UAEXH@Z @4505 NONAME
  ?OnLButtonDown@CGXTabBeam@@IAEXIVCPoint@@@Z @4506 NONAME
  ?OnLButtonUp@CGXTabBeam@@IAEXIVCPoint@@@Z @4507 NONAME
  ?OnMouseMove@CGXTabBeam@@IAEXIVCPoint@@@Z @4508 NONAME
  ?UpdateColors@CGXTabBeam@@QAEXXZ @4509 NONAME
  ?OnSysColorChange@CGXTabBeam@@IAEXXZ @4510 NONAME
  ?OnWinIniChange@CGXTabBeam@@IAEXPBD@Z @4511 NONAME
  ?PatB@CGXTabBeam@@SGXPAVCDC@@HHHHK@Z @4512 NONAME
  ?DrawBlankButton@CGXTabBeam@@SGXPAVCDC@@HHHHH@Z @4513 NONAME

;----------------  .\objs\ogmsasd\GXTIME.obj  ----------------

  ?GXIntlStrFtime@@YGIPAUHINSTANCE__@@IPADIPBDPBUtm@@@Z @4514 NONAME
  ?GXUpdateDateTimeSettings@@YGXXZ @4515 NONAME
  ?GXGetDateFormatFromWinIni@@YG?AW4GXDateFormat@@HAAHAAD@Z @4516 NONAME
  ?GXGetTimeSeparatorFromWinIni@@YGDH@Z @4517 NONAME
  ?GXParseDateTime@@YGHPAUtm@@PBDW4GXDateFormat@@@Z @4518 NONAME
  ?GXParseDateTime@@YGHPAUtagTIMESTAMP_STRUCT@@PBDW4GXDateFormat@@@Z @4519 NONAME
;  ?GXFormatTimeStamp@@YGXAAVCString@@PBVCTime@@@Z @4520 NONAME
;  ?GXFormatTimeStamp@@YGXAAVCString@@PBUtagTIMESTAMP_STRUCT@@@Z @4521 NONAME

;----------------  .\objs\ogmsasd\gxttn.obj  ----------------

  ??0CGXToolTipCtrlProxy@@QAE@PAVCGXGridCore@@PAVCWnd@@@Z @4522 NONAME
;  ??0CGXNoToolTipCtrlProxy@@QAE@XZ @4525 NONAME
  ??1CGXToolTipCtrlProxy@@UAE@XZ @4528 NONAME
  ?RelayEvent@CGXToolTipCtrlProxy@@UAEXPAUtagMSG@@@Z @4529 NONAME
  ?UpdateTipArea@CGXToolTipCtrlProxy@@UAEXXZ @4530 NONAME
  ?Reset@CGXToolTipCtrlProxy@@UAEXXZ @4531 NONAME
  ?InitToolTip@CGXToolTipCtrlProxy@@UAEHXZ @4532 NONAME
  ?OnMouseMove@CGXToolTipCtrlProxy@@UAEHIVCPoint@@@Z @4533 NONAME
  ?ImplementToolTips@CGXGridCore@@QAEXXZ @4534 NONAME
  ?EnableGridToolTips@CGXGridCore@@QAEHH@Z @4535 NONAME

;----------------  .\objs\ogmsasd\gxtwnd.obj  ----------------

	?GetThisClass@CGXTabWnd@@SGPAUCRuntimeClass@@XZ
  ?CreateObject@CGXTabWnd@@SGPAVCObject@@XZ @4542 NONAME
  ?GetRuntimeClass@CGXTabWnd@@UBEPAUCRuntimeClass@@XZ @4544 NONAME
  ?RegisterClassA@CGXTabWnd@@SGPBDXZ @4545 NONAME
  ?RegisterClassA@CGXTabWnd@@SGPBDPAUHINSTANCE__@@@Z @4546 NONAME
  ?WndProcHook@CGXTabWnd@@KGJPAUHWND__@@IIJ@Z @4547 NONAME
  ?UnregisterClassA@CGXTabWnd@@SGXXZ @4548 NONAME
  ?UnregisterClassA@CGXTabWnd@@SGXPAUHINSTANCE__@@@Z @4549 NONAME
  ?PostNcDestroy@CGXTabWnd@@MAEXXZ @4550 NONAME
  ?DDV_GXTabWnd@@YGXPAVCDataExchange@@PAVCGXTabWnd@@@Z @4551 NONAME
  ?GXGetParentTabWnd@@YAPAVCGXTabWnd@@PBVCWnd@@H@Z @4552 NONAME
;  ?UpdateTabName@CGXTabWndInterface@@UAEXPBVCWnd@@AAVCString@@H@Z @4553 NONAME
;  ?GetTabName@CGXTabWndInterface@@UAE?AVCString@@PBVCWnd@@H@Z @4554 NONAME
  ??0CGXTabWnd@@QAE@PAUCRuntimeClass@@@Z @4555 NONAME
;  ??0CGXTabWndInterface@@QAE@XZ @4558 NONAME

;  ??0CGXAbstractTabWndInterface@@QAE@XZ @4560 NONAME

  ??1CGXTabWnd@@UAE@XZ @4562 NONAME
  ?GetBeam@CGXTabWnd@@QAEAAVCGXTabBeam@@XZ @4563 NONAME
  ?GetActivePane@CGXTabWnd@@QAEPAVCWnd@@XZ @4564 NONAME
  ?SwitchTab@CGXTabWnd@@QAEXH@Z @4565 NONAME
  ?RemoveTab@CGXTabWnd@@QAEXH@Z @4566 NONAME
  ?PreCreateWindow@CGXTabWnd@@MAEHAAUtagCREATESTRUCTA@@@Z @4567 NONAME
  ?Create@CGXTabWnd@@QAEHPAVCWnd@@PBDPAUCCreateContext@@KI@Z @4568 NONAME
  ?SaveScrollbarState@CGXTabWnd@@QAEXPAVCWnd@@@Z @4569 NONAME
  ?RestoreScrollbarState@CGXTabWnd@@QAEXPAVCWnd@@@Z @4570 NONAME
  ?CreateCommon@CGXTabWnd@@QAEHPAVCWnd@@KI@Z @4571 NONAME
  ?CreateScrollBarCtrl@CGXTabWnd@@QAEHKI@Z @4574 NONAME
  ?RecalcLayout@CGXTabWnd@@UAEXH@Z @4575 NONAME
  ?ShowScrollBar@CGXTabWnd@@QAEXIH@Z @4576 NONAME
  ?GetInsideRect@CGXTabWnd@@QBEXAAVCRect@@@Z @4577 NONAME
  ?CreateView@CGXTabWnd@@QAEPAVCWnd@@PAUCRuntimeClass@@PBDPAUCCreateContext@@I@Z @4578 NONAME
  ?GetNextID@CGXTabWnd@@QAEIXZ @4579 NONAME
  ?AttachWnd@CGXTabWnd@@UAEPAVCWnd@@PAV2@PBD@Z @4580 NONAME
  ?GetMessageMap@CGXTabWnd@@MBEPBUAFX_MSGMAP@@XZ @4582 NONAME
  ?SwitchTab@CGXTabWnd@@QAEXPAVCWnd@@@Z @4583 NONAME
  ?RemoveTab@CGXTabWnd@@QAEXPAVCWnd@@@Z @4584 NONAME
  ?GetTabName@CGXTabWnd@@QAEPBDH@Z @4585 NONAME
  ?GetTabName@CGXTabWnd@@QAEPBDPBVCWnd@@@Z @4586 NONAME
  ?SetTabName@CGXTabWnd@@QAEXHPBDH@Z @4587 NONAME
  ?SetTabName@CGXTabWnd@@QAEXPBVCWnd@@PBDH@Z @4588 NONAME
  ?OnTabSwitch@CGXTabWnd@@IAEJIJ@Z @4589 NONAME
  ?OnCanTabSwitch@CGXTabWnd@@IAEJIJ@Z @4590 NONAME
  ?OnTabDblClk@CGXTabWnd@@IAEJIJ@Z @4591 NONAME
  ?OnEditEnd@CGXTabWnd@@IAEJIJ@Z @4592 NONAME
  ?OnEditCancel@CGXTabWnd@@IAEJIJ@Z @4593 NONAME
  ?OnPaint@CGXTabWnd@@IAEXXZ @4594 NONAME
  ?OnSize@CGXTabWnd@@IAEXIHH@Z @4595 NONAME
  ?OnVScroll@CGXTabWnd@@IAEXIIPAVCScrollBar@@@Z @4596 NONAME
  ?OnHScroll@CGXTabWnd@@IAEXIIPAVCScrollBar@@@Z @4597 NONAME
  ?OnDrawSplitter@CGXTabWnd@@QAEXPAVCDC@@ABVCRect@@@Z @4598 NONAME
  ?OnLButtonDown@CGXTabWnd@@IAEXIVCPoint@@@Z @4599 NONAME
  ?OnLButtonUp@CGXTabWnd@@IAEXIVCPoint@@@Z @4600 NONAME
  ?OnMouseMove@CGXTabWnd@@IAEXIVCPoint@@@Z @4601 NONAME
  ?OnSetCursor@CGXTabWnd@@IAEHPAVCWnd@@II@Z @4602 NONAME
  ?OnSetFocus@CGXTabWnd@@IAEXPAVCWnd@@@Z @4603 NONAME
  ?OnEraseBkgnd@CGXTabWnd@@IAEHPAVCDC@@@Z @4604 NONAME
  ??0CGXEditLabelPopup@@QAE@VCRect@@PAVCWnd@@I@Z @4605 NONAME
  ??1CGXEditLabelPopup@@UAE@XZ @4608 NONAME
  ?GetMessageMap@CGXEditLabelPopup@@MBEPBUAFX_MSGMAP@@XZ @4610 NONAME
  ?OnKillFocus@CGXEditLabelPopup@@IAEXPAVCWnd@@@Z @4611 NONAME
  ?OnKeyDown@CGXEditLabelPopup@@IAEXIII@Z @4612 NONAME
  ?OnKeyUp@CGXEditLabelPopup@@IAEXIII@Z @4613 NONAME
  ?OnGetDlgCode@CGXEditLabelPopup@@IAEIXZ @4614 NONAME
  ?OnNcPaint@CGXTabWnd@@IAEXXZ @4615 NONAME
  ?OnSysColorChange@CGXTabWnd@@IAEXXZ @4616 NONAME
  ?OnWinIniChange@CGXTabWnd@@IAEXPBD@Z @4617 NONAME

;----------------  .\objs\ogmsasd\gxupdopt.obj  ----------------

  ?ImplementOptimizedUpdate@CGXGridCore@@QAEXXZ @4619 NONAME
;  ??0CGXGridOptimizedUpdateImp@@QAE@XZ @4620 NONAME

;  ??0CGXAbstractGridOptimizedUpdateImp@@QAE@XZ @4622 NONAME

  ?UpdateInsertRows@CGXGridOptimizedUpdateImp@@UAEXPAVCGXGridCore@@AAK1AAI@Z @4624 NONAME
  ?UpdateInsertCols@CGXGridOptimizedUpdateImp@@UAEXPAVCGXGridCore@@AAK1AAI@Z @4625 NONAME
  ?UpdateRemoveRows@CGXGridOptimizedUpdateImp@@UAEXPAVCGXGridCore@@AAK1PAHI@Z @4626 NONAME
  ?UpdateRemoveCols@CGXGridOptimizedUpdateImp@@UAEXPAVCGXGridCore@@AAK1PAHAAI@Z @4627 NONAME
  ?UpdateChangedRowHeights@CGXGridOptimizedUpdateImp@@UAEXPAVCGXGridCore@@AAK1PAHAAI@Z @4628 NONAME
  ?UpdateChangedColWidths@CGXGridOptimizedUpdateImp@@UAEXPAVCGXGridCore@@AAK1PAHAAI@Z @4629 NONAME

;----------------  .\objs\ogmsasd\GXVIEW.obj  ----------------

  ?GetRuntimeClass@CGXView@@UBEPAUCRuntimeClass@@XZ @4646 NONAME
  ??0CGXView@@IAE@XZ @4647 NONAME
  ??1CGXView@@MAE@XZ @4650 NONAME
  ?OnPreparePrinting@CGXView@@MAEHPAUCPrintInfo@@@Z @4651 NONAME
  ?OnFilePrintSetup@CGXView@@IAEXXZ @4652 NONAME
  ?UpdatePrinterDevice@CGXView@@IAEXPAVCGXPrintDevice@@@Z @4655 NONAME
  ?DoPrintDialog@CGXView@@QAEHPAVCPrintDialog@@@Z @4656 NONAME
  ?DoPreparePrinting@CGXView@@QAEHPAUCPrintInfo@@@Z @4657 NONAME
  ?GetPrintDevice@CGXView@@QAEPAVCGXPrintDevice@@XZ @4658 NONAME
  ?SetPrintDevice@CGXView@@QAEXPAVCGXPrintDevice@@H@Z @4659 NONAME
  ?OnModifiedPrintDevice@CGXView@@UAEXXZ @4660 NONAME
  ?AssertValid@CGXView@@MBEXXZ @4661 NONAME
;  ?Dump@CGXView@@MBEXAAVCDumpContext@@@Z @4662 NONAME
  ?GetMessageMap@CGXView@@MBEPBUAFX_MSGMAP@@XZ @4664 NONAME
  ?OnInitialUpdate@CGXView@@MAEXXZ @4665 NONAME
  ?GetParentSplitter@CGXView@@SGPAVCSplitterWnd@@PBVCWnd@@H@Z @4666 NONAME
  ?GetParentDynamicSplitter@CGXView@@SGPAVCSplitterWnd@@PBVCWnd@@H@Z @4667 NONAME
  ?GetParentTabViewID@CGXView@@SGIPBVCWnd@@@Z @4668 NONAME
  ?GetScrollBarCtrl@CGXView@@UBEPAVCScrollBar@@H@Z @4669 NONAME
  ?OnChangedTab@CGXView@@IAEJIJ@Z @4670 NONAME
  ?OnNeedChangeTab@CGXView@@IAEJIJ@Z @4671 NONAME
  ?OnCanActivate@CGXView@@IAEJIJ@Z @4672 NONAME

;----------------  .\objs\ogmsasd\gxviewt.obj  ----------------

;  ?GetTabName@CGXView@@QAE?AVCString@@XZ @4675 NONAME
;  ?SetTabName@CGXView@@QAEXVCString@@@Z @4676 NONAME
;  ?GetParentTabWnd@@YAPAVCGXTabWnd@@PBVCWnd@@H@Z @4677 NONAME

;----------------  .\objs\ogmsasd\Gxvw.obj  ----------------

	?GetThisClass@CGXGridView@@SGPAUCRuntimeClass@@XZ
	?GetThisMessageMap@CGXGridView@@KGPBUAFX_MSGMAP@@XZ
  ?CreateObject@CGXGridView@@SGPAVCObject@@XZ @4681 NONAME
  ?GetRuntimeClass@CGXGridView@@UBEPAUCRuntimeClass@@XZ @4683 NONAME
  ?GetMessageMap@CGXGridView@@MBEPBUAFX_MSGMAP@@XZ @4685 NONAME
  ??0CGXGridView@@IAE@XZ @4686 NONAME
  ??1CGXGridView@@MAE@XZ @4690 NONAME
  ?OnInitialUpdate@CGXGridView@@UAEXXZ @4691 NONAME
  ?OnChangedTab@CGXGridView@@IAEJIJ@Z @4692 NONAME
  ?OnCanActivate@CGXGridView@@IAEJIJ@Z @4693 NONAME
  ?OnNeedChangeTab@CGXGridView@@IAEJIJ@Z @4694 NONAME
  ?OnLockResize@CGXGridView@@IAEJIJ@Z @4695 NONAME
  ?OnMoveRecord@CGXGridView@@IAEJIJ@Z @4696 NONAME
  ?GetScrollBarCtrl@CGXGridView@@UBEPAVCScrollBar@@H@Z @4697 NONAME
  ?OnActivateView@CGXGridView@@UAEXHPAVCView@@0@Z @4698 NONAME
  ?OnDraw@CGXGridView@@UAEXPAVCDC@@@Z @4699 NONAME
  ?OnPrepareDC@CGXGridView@@UAEXPAVCDC@@PAUCPrintInfo@@@Z @4700 NONAME
  ?OnUpdate@CGXGridView@@UAEXPAVCView@@JPAVCObject@@@Z @4701 NONAME
  ?OnCommand@CGXGridView@@UAEHIJ@Z @4702 NONAME
  ?PreTranslateMessage@CGXGridView@@UAEHPAUtagMSG@@@Z @4703 NONAME
  ?WindowProc@CGXGridView@@MAEJIIJ@Z @4704 NONAME
  ?OnPreparePrinting@CGXGridView@@MAEHPAUCPrintInfo@@@Z @4705 NONAME
  ?OnBeginPrinting@CGXGridView@@MAEXPAVCDC@@PAUCPrintInfo@@@Z @4706 NONAME
  ?OnEndPrinting@CGXGridView@@MAEXPAVCDC@@PAUCPrintInfo@@@Z @4707 NONAME
  ?OnPrint@CGXGridView@@MAEXPAVCDC@@PAUCPrintInfo@@@Z @4708 NONAME
  ?AssertValid@CGXGridView@@MBEXXZ @4709 NONAME
;  ?Dump@CGXGridView@@MBEXAAVCDumpContext@@@Z @4710 NONAME
  ?OnPaint@CGXGridView@@IAEXXZ @4711 NONAME
  ?OnDestroy@CGXGridView@@IAEXXZ @4712 NONAME
  ?OnVScroll@CGXGridView@@IAEXIIPAVCScrollBar@@@Z @4713 NONAME
  ?OnHScroll@CGXGridView@@IAEXIIPAVCScrollBar@@@Z @4714 NONAME
  ?OnSetCursor@CGXGridView@@IAEHPAVCWnd@@II@Z @4715 NONAME
  ?OnMouseMove@CGXGridView@@IAEXIVCPoint@@@Z @4716 NONAME
  ?OnMouseActivate@CGXGridView@@IAEHPAVCWnd@@II@Z @4717 NONAME
  ?OnLButtonDown@CGXGridView@@IAEXIVCPoint@@@Z @4718 NONAME
  ?OnLButtonUp@CGXGridView@@IAEXIVCPoint@@@Z @4719 NONAME
  ?OnRButtonDown@CGXGridView@@IAEXIVCPoint@@@Z @4720 NONAME
  ?OnRButtonUp@CGXGridView@@IAEXIVCPoint@@@Z @4721 NONAME
  ?OnLButtonDblClk@CGXGridView@@IAEXIVCPoint@@@Z @4722 NONAME
  ?OnRButtonDblClk@CGXGridView@@IAEXIVCPoint@@@Z @4723 NONAME
  ?OnMButtonDown@CGXGridView@@IAEXIVCPoint@@@Z @4724 NONAME
  ?OnMButtonUp@CGXGridView@@IAEXIVCPoint@@@Z @4725 NONAME
  ?OnMButtonDblClk@CGXGridView@@IAEXIVCPoint@@@Z @4726 NONAME
  ?OnEraseBkgnd@CGXGridView@@IAEHPAVCDC@@@Z @4727 NONAME
  ?OnSize@CGXGridView@@IAEXIHH@Z @4728 NONAME
  ?OnShowWindow@CGXGridView@@IAEXHI@Z @4729 NONAME
  ?OnCtlColor@CGXGridView@@IAEPAUHBRUSH__@@PAVCDC@@PAVCWnd@@I@Z @4730 NONAME
  ?OnKeyDown@CGXGridView@@IAEXIII@Z @4731 NONAME
  ?OnKeyUp@CGXGridView@@IAEXIII@Z @4732 NONAME
  ?OnSysKeyDown@CGXGridView@@IAEXIII@Z @4733 NONAME
  ?OnSysKeyUp@CGXGridView@@IAEXIII@Z @4734 NONAME
  ?OnSysChar@CGXGridView@@IAEXIII@Z @4735 NONAME
  ?OnChar@CGXGridView@@IAEXIII@Z @4736 NONAME
  ?OnSetFocus@CGXGridView@@IAEXPAVCWnd@@@Z @4737 NONAME
  ?OnCancelMode@CGXGridView@@IAEXXZ @4738 NONAME
  ?OnWinIniChange@CGXGridView@@IAEXPBD@Z @4739 NONAME
  ?OnSysColorChange@CGXGridView@@IAEXXZ @4740 NONAME
  ?OnTimer@CGXGridView@@IAEXI@Z @4741 NONAME
  ?OnUpdateEditCopy@CGXGridView@@IAEXPAVCCmdUI@@@Z @4742 NONAME
  ?OnEditCopy@CGXGridView@@IAEXXZ @4743 NONAME
  ?OnEditCut@CGXGridView@@IAEXXZ @4744 NONAME
  ?OnUpdateEditCut@CGXGridView@@IAEXPAVCCmdUI@@@Z @4745 NONAME
  ?OnEditPaste@CGXGridView@@IAEXXZ @4746 NONAME
  ?OnUpdateEditPaste@CGXGridView@@IAEXPAVCCmdUI@@@Z @4747 NONAME
  ?OnEditUndo@CGXGridView@@IAEXXZ @4748 NONAME
  ?OnUpdateEditUndo@CGXGridView@@IAEXPAVCCmdUI@@@Z @4749 NONAME
  ?OnEditRedo@CGXGridView@@IAEXXZ @4750 NONAME
  ?OnUpdateEditRedo@CGXGridView@@IAEXPAVCCmdUI@@@Z @4751 NONAME
  ?OnEditFind@CGXGridView@@IAEXXZ @4752 NONAME
  ?OnEditReplace@CGXGridView@@IAEXXZ @4753 NONAME
  ?OnEditRepeat@CGXGridView@@IAEXXZ @4754 NONAME
  ?OnFindReplaceCmd@CGXGridView@@IAEJIJ@Z @4755 NONAME
  ?OnKillFocus@CGXGridView@@IAEXPAVCWnd@@@Z @4756 NONAME
;  ?AssertValid@CGXGridView@@OEM@BEXXZ @4758 NONAME
;  ?Dump@CGXGridView@@OEM@BEXAAVCDumpContext@@@Z @4759 NONAME
;  ?SetGridWnd@CGXGridCore@@QAEXPAVCWnd@@PAVCDocument@@H@Z @4760 NONAME

;----------------  .\objs\ogmsasd\GXWAIT.obj  ----------------

  ??0GX_WAIT_STATE@@QAE@XZ @4763 NONAME
  ??0CGXLongOperation@@QAE@XZ @4764 NONAME
  ??1CGXLongOperation@@QAE@XZ @4765 NONAME
  ?FreeStatusText@CGXLongOperation@@QAEXXZ @4766 NONAME
  ?SetStatusText@CGXLongOperation@@QAEXPBDH@Z @4767 NONAME
  ?DoMessages@CGXLongOperation@@QAEHXZ @4768 NONAME
  ?DoMessages@CGXLongOperation@@QAEHAAH@Z @4769 NONAME
  ?ProcessMessages@CGXLongOperation@@AAEXXZ @4770 NONAME

;----------------  .\objs\ogmsasd\gxwnd.obj  ----------------

  ?CreateObject@CGXGridWnd@@SGPAVCObject@@XZ @4774 NONAME
  ?GetRuntimeClass@CGXGridWnd@@UBEPAUCRuntimeClass@@XZ @4776 NONAME
  ?RegisterClassA@CGXGridWnd@@SGPBDXZ @4777 NONAME
  ?RegisterClassA@CGXGridWnd@@SGPBDPAUHINSTANCE__@@@Z @4778 NONAME
  ?WndProcHook@CGXGridWnd@@KGJPAUHWND__@@IIJ@Z @4779 NONAME
  ?UnregisterClassA@CGXGridWnd@@SGXXZ @4780 NONAME
  ?UnregisterClassA@CGXGridWnd@@SGXPAUHINSTANCE__@@@Z @4781 NONAME
  ?PostNcDestroy@CGXGridWnd@@MAEXXZ @4782 NONAME
  ?DDV_GXGridWnd@@YGXPAVCDataExchange@@PAVCGXGridCore@@@Z @4783 NONAME
  ??0CGXGridWnd@@QAE@XZ @4784 NONAME
  ?Create@CGXGridWnd@@QAEHKABUtagRECT@@PAVCWnd@@I@Z @4789 NONAME
  ?GetMessageMap@CGXGridWnd@@MBEPBUAFX_MSGMAP@@XZ @4791 NONAME
  ?Initialize@CGXGridWnd@@QAEXXZ @4792 NONAME
  ?OnInitialUpdate@CGXGridWnd@@MAEXXZ @4793 NONAME
  ?GetParentTabViewID@CGXGridWnd@@SGIPBVCWnd@@@Z @4794 NONAME
  ?GetScrollBarCtrl@CGXGridWnd@@UBEPAVCScrollBar@@H@Z @4795 NONAME
  ?OnChangedTab@CGXGridWnd@@IAEJIJ@Z @4796 NONAME
  ?OnNeedChangeTab@CGXGridWnd@@IAEJIJ@Z @4797 NONAME
  ?OnCanActivate@CGXGridWnd@@IAEJIJ@Z @4798 NONAME
  ?OnLockResize@CGXGridWnd@@IAEJIJ@Z @4799 NONAME
  ?OnMoveRecord@CGXGridWnd@@IAEJIJ@Z @4800 NONAME
  ?OnFindReplaceCmd@CGXGridWnd@@IAEJIJ@Z @4801 NONAME
  ?OnPaint@CGXGridWnd@@IAEXXZ @4802 NONAME
  ?OnNcPaint@CGXGridWnd@@IAEXXZ @4803 NONAME
  ?OnCtlColor@CGXGridWnd@@IAEPAUHBRUSH__@@PAVCDC@@PAVCWnd@@I@Z @4804 NONAME
  ?OnDestroy@CGXGridWnd@@IAEXXZ @4805 NONAME
  ?OnHScroll@CGXGridWnd@@IAEXIIPAVCScrollBar@@@Z @4806 NONAME
  ?OnKeyDown@CGXGridWnd@@IAEXIII@Z @4807 NONAME
  ?OnKeyUp@CGXGridWnd@@IAEXIII@Z @4808 NONAME
  ?OnSysKeyDown@CGXGridWnd@@IAEXIII@Z @4809 NONAME
  ?OnSysChar@CGXGridWnd@@IAEXIII@Z @4810 NONAME
  ?OnSysKeyUp@CGXGridWnd@@IAEXIII@Z @4811 NONAME
  ?OnChar@CGXGridWnd@@IAEXIII@Z @4812 NONAME
  ?OnLButtonDown@CGXGridWnd@@IAEXIVCPoint@@@Z @4813 NONAME
  ?OnLButtonUp@CGXGridWnd@@IAEXIVCPoint@@@Z @4814 NONAME
  ?OnMouseMove@CGXGridWnd@@IAEXIVCPoint@@@Z @4815 NONAME
  ?OnLButtonDblClk@CGXGridWnd@@IAEXIVCPoint@@@Z @4816 NONAME
  ?OnMButtonDblClk@CGXGridWnd@@IAEXIVCPoint@@@Z @4817 NONAME
  ?OnMButtonDown@CGXGridWnd@@IAEXIVCPoint@@@Z @4818 NONAME
  ?OnMButtonUp@CGXGridWnd@@IAEXIVCPoint@@@Z @4819 NONAME
  ?OnRButtonDblClk@CGXGridWnd@@IAEXIVCPoint@@@Z @4820 NONAME
  ?OnRButtonDown@CGXGridWnd@@IAEXIVCPoint@@@Z @4821 NONAME
  ?OnRButtonUp@CGXGridWnd@@IAEXIVCPoint@@@Z @4822 NONAME
  ?OnEraseBkgnd@CGXGridWnd@@IAEHPAVCDC@@@Z @4823 NONAME
  ?OnSetCursor@CGXGridWnd@@IAEHPAVCWnd@@II@Z @4824 NONAME
  ?OnSize@CGXGridWnd@@IAEXIHH@Z @4825 NONAME
  ?OnShowWindow@CGXGridWnd@@IAEXHI@Z @4826 NONAME
  ?OnVScroll@CGXGridWnd@@IAEXIIPAVCScrollBar@@@Z @4827 NONAME
  ?OnSetFocus@CGXGridWnd@@IAEXPAVCWnd@@@Z @4828 NONAME
  ?OnKillFocus@CGXGridWnd@@IAEXPAVCWnd@@@Z @4829 NONAME
  ?OnGetDlgCode@CGXGridWnd@@IAEIXZ @4830 NONAME
  ?OnCancelMode@CGXGridWnd@@IAEXXZ @4831 NONAME
  ?OnMouseActivate@CGXGridWnd@@IAEHPAVCWnd@@II@Z @4832 NONAME
  ?OnCommand@CGXGridWnd@@MAEHIJ@Z @4833 NONAME
  ?PreTranslateMessage@CGXGridWnd@@MAEHPAUtagMSG@@@Z @4834 NONAME
  ?WindowProc@CGXGridWnd@@MAEJIIJ@Z @4835 NONAME
  ?OnWinIniChange@CGXGridWnd@@IAEXPBD@Z @4836 NONAME
  ?OnSysColorChange@CGXGridWnd@@IAEXXZ @4837 NONAME
  ?OnTimer@CGXGridWnd@@IAEXI@Z @4838 NONAME
  ?OnBeginPrinting@CGXGridWnd@@UAEXPAVCDC@@PAUCPrintInfo@@@Z @4839 NONAME
  ?OnEndPrinting@CGXGridWnd@@UAEXPAVCDC@@PAUCPrintInfo@@@Z @4840 NONAME
  ?OnPrint@CGXGridWnd@@UAEXPAVCDC@@PAUCPrintInfo@@@Z @4841 NONAME
  ?AssertValid@CGXGridWnd@@UBEXXZ @4842 NONAME
;  ?Dump@CGXGridWnd@@UBEXAAVCDumpContext@@@Z @4843 NONAME
;
; :DLLXPORT_END
